In archive tools/agbcc/lib/libc.a:

writer.o:     file format elf32-littlearm


Disassembly of section .text:

00000000 <_write_r>:
   0:	b530      	push	{r4, r5, lr}
   2:	1c05      	adds	r5, r0, #0
   4:	1c08      	adds	r0, r1, #0
   6:	1c11      	adds	r1, r2, #0
   8:	1c1a      	adds	r2, r3, #0
   a:	4c08      	ldr	r4, [pc, #32]	@ (2c <_write_r+0x2c>)
   c:	2300      	movs	r3, #0
   e:	6023      	str	r3, [r4, #0]
  10:	f7ff fffe 	bl	0 <_write>
  14:	1c01      	adds	r1, r0, #0
  16:	2001      	movs	r0, #1
  18:	4240      	negs	r0, r0
  1a:	4281      	cmp	r1, r0
  1c:	d103      	bne.n	26 <_write_r+0x26>
  1e:	6820      	ldr	r0, [r4, #0]
  20:	2800      	cmp	r0, #0
  22:	d000      	beq.n	26 <_write_r+0x26>
  24:	6028      	str	r0, [r5, #0]
  26:	1c08      	adds	r0, r1, #0
  28:	bd30      	pop	{r4, r5, pc}
  2a:	0000      	.short	0x0000
  2c:	00000000 	.word	0x00000000

lseekr.o:     file format elf32-littlearm


Disassembly of section .text:

00000000 <_lseek_r>:
   0:	b530      	push	{r4, r5, lr}
   2:	1c05      	adds	r5, r0, #0
   4:	1c08      	adds	r0, r1, #0
   6:	1c11      	adds	r1, r2, #0
   8:	1c1a      	adds	r2, r3, #0
   a:	4c08      	ldr	r4, [pc, #32]	@ (2c <_lseek_r+0x2c>)
   c:	2300      	movs	r3, #0
   e:	6023      	str	r3, [r4, #0]
  10:	f7ff fffe 	bl	0 <_lseek>
  14:	1c01      	adds	r1, r0, #0
  16:	2001      	movs	r0, #1
  18:	4240      	negs	r0, r0
  1a:	4281      	cmp	r1, r0
  1c:	d103      	bne.n	26 <_lseek_r+0x26>
  1e:	6820      	ldr	r0, [r4, #0]
  20:	2800      	cmp	r0, #0
  22:	d000      	beq.n	26 <_lseek_r+0x26>
  24:	6028      	str	r0, [r5, #0]
  26:	1c08      	adds	r0, r1, #0
  28:	bd30      	pop	{r4, r5, pc}
  2a:	0000      	.short	0x0000
  2c:	00000000 	.word	0x00000000

statr.o:     file format elf32-littlearm


Disassembly of section .text:

00000000 <_stat_r>:
   0:	b530      	push	{r4, r5, lr}
   2:	1c05      	adds	r5, r0, #0
   4:	1c08      	adds	r0, r1, #0
   6:	1c11      	adds	r1, r2, #0
   8:	4c07      	ldr	r4, [pc, #28]	@ (28 <_stat_r+0x28>)
   a:	2200      	movs	r2, #0
   c:	6022      	str	r2, [r4, #0]
   e:	f7ff fffe 	bl	0 <_stat>
  12:	1c01      	adds	r1, r0, #0
  14:	2001      	movs	r0, #1
  16:	4240      	negs	r0, r0
  18:	4281      	cmp	r1, r0
  1a:	d103      	bne.n	24 <_stat_r+0x24>
  1c:	6820      	ldr	r0, [r4, #0]
  1e:	2800      	cmp	r0, #0
  20:	d000      	beq.n	24 <_stat_r+0x24>
  22:	6028      	str	r0, [r5, #0]
  24:	1c08      	adds	r0, r1, #0
  26:	bd30      	pop	{r4, r5, pc}
  28:	00000000 	.word	0x00000000

linkr.o:     file format elf32-littlearm


Disassembly of section .text:

00000000 <_link_r>:
   0:	b530      	push	{r4, r5, lr}
   2:	1c05      	adds	r5, r0, #0
   4:	1c08      	adds	r0, r1, #0
   6:	1c11      	adds	r1, r2, #0
   8:	4c07      	ldr	r4, [pc, #28]	@ (28 <_link_r+0x28>)
   a:	2200      	movs	r2, #0
   c:	6022      	str	r2, [r4, #0]
   e:	f7ff fffe 	bl	0 <_link>
  12:	1c01      	adds	r1, r0, #0
  14:	2001      	movs	r0, #1
  16:	4240      	negs	r0, r0
  18:	4281      	cmp	r1, r0
  1a:	d103      	bne.n	24 <_link_r+0x24>
  1c:	6820      	ldr	r0, [r4, #0]
  1e:	2800      	cmp	r0, #0
  20:	d000      	beq.n	24 <_link_r+0x24>
  22:	6028      	str	r0, [r5, #0]
  24:	1c08      	adds	r0, r1, #0
  26:	bd30      	pop	{r4, r5, pc}
  28:	00000000 	.word	0x00000000

0000002c <_unlink_r>:
  2c:	b530      	push	{r4, r5, lr}
  2e:	1c05      	adds	r5, r0, #0
  30:	1c08      	adds	r0, r1, #0
  32:	4c08      	ldr	r4, [pc, #32]	@ (54 <_unlink_r+0x28>)
  34:	2100      	movs	r1, #0
  36:	6021      	str	r1, [r4, #0]
  38:	f7ff fffe 	bl	0 <_unlink>
  3c:	1c01      	adds	r1, r0, #0
  3e:	2001      	movs	r0, #1
  40:	4240      	negs	r0, r0
  42:	4281      	cmp	r1, r0
  44:	d103      	bne.n	4e <_unlink_r+0x22>
  46:	6820      	ldr	r0, [r4, #0]
  48:	2800      	cmp	r0, #0
  4a:	d000      	beq.n	4e <_unlink_r+0x22>
  4c:	6028      	str	r0, [r5, #0]
  4e:	1c08      	adds	r0, r1, #0
  50:	bd30      	pop	{r4, r5, pc}
  52:	0000      	.short	0x0000
  54:	00000000 	.word	0x00000000

timer.o:     file format elf32-littlearm


Disassembly of section .text:

00000000 <_times_r>:
   0:	b500      	push	{lr}
   2:	1c08      	adds	r0, r1, #0
   4:	f7ff fffe 	bl	0 <_times>
   8:	bd00      	pop	{pc}
	...

0000000c <_gettimeofday_r>:
   c:	b530      	push	{r4, r5, lr}
   e:	1c05      	adds	r5, r0, #0
  10:	1c08      	adds	r0, r1, #0
  12:	1c11      	adds	r1, r2, #0
  14:	4c07      	ldr	r4, [pc, #28]	@ (34 <_gettimeofday_r+0x28>)
  16:	2200      	movs	r2, #0
  18:	6022      	str	r2, [r4, #0]
  1a:	f7ff fffe 	bl	0 <_gettimeofday>
  1e:	1c01      	adds	r1, r0, #0
  20:	2001      	movs	r0, #1
  22:	4240      	negs	r0, r0
  24:	4281      	cmp	r1, r0
  26:	d103      	bne.n	30 <_gettimeofday_r+0x24>
  28:	6820      	ldr	r0, [r4, #0]
  2a:	2800      	cmp	r0, #0
  2c:	d000      	beq.n	30 <_gettimeofday_r+0x24>
  2e:	6028      	str	r0, [r5, #0]
  30:	1c08      	adds	r0, r1, #0
  32:	bd30      	pop	{r4, r5, pc}
  34:	00000000 	.word	0x00000000

readr.o:     file format elf32-littlearm


Disassembly of section .text:

00000000 <_read_r>:
   0:	b530      	push	{r4, r5, lr}
   2:	1c05      	adds	r5, r0, #0
   4:	1c08      	adds	r0, r1, #0
   6:	1c11      	adds	r1, r2, #0
   8:	1c1a      	adds	r2, r3, #0
   a:	4c08      	ldr	r4, [pc, #32]	@ (2c <_read_r+0x2c>)
   c:	2300      	movs	r3, #0
   e:	6023      	str	r3, [r4, #0]
  10:	f7ff fffe 	bl	0 <_read>
  14:	1c01      	adds	r1, r0, #0
  16:	2001      	movs	r0, #1
  18:	4240      	negs	r0, r0
  1a:	4281      	cmp	r1, r0
  1c:	d103      	bne.n	26 <_read_r+0x26>
  1e:	6820      	ldr	r0, [r4, #0]
  20:	2800      	cmp	r0, #0
  22:	d000      	beq.n	26 <_read_r+0x26>
  24:	6028      	str	r0, [r5, #0]
  26:	1c08      	adds	r0, r1, #0
  28:	bd30      	pop	{r4, r5, pc}
  2a:	0000      	.short	0x0000
  2c:	00000000 	.word	0x00000000

signalr.o:     file format elf32-littlearm


Disassembly of section .text:

00000000 <_kill_r>:
   0:	b530      	push	{r4, r5, lr}
   2:	1c05      	adds	r5, r0, #0
   4:	1c08      	adds	r0, r1, #0
   6:	1c11      	adds	r1, r2, #0
   8:	4c07      	ldr	r4, [pc, #28]	@ (28 <_kill_r+0x28>)
   a:	2200      	movs	r2, #0
   c:	6022      	str	r2, [r4, #0]
   e:	f7ff fffe 	bl	0 <_kill>
  12:	1c01      	adds	r1, r0, #0
  14:	2001      	movs	r0, #1
  16:	4240      	negs	r0, r0
  18:	4281      	cmp	r1, r0
  1a:	d103      	bne.n	24 <_kill_r+0x24>
  1c:	6820      	ldr	r0, [r4, #0]
  1e:	2800      	cmp	r0, #0
  20:	d000      	beq.n	24 <_kill_r+0x24>
  22:	6028      	str	r0, [r5, #0]
  24:	1c08      	adds	r0, r1, #0
  26:	bd30      	pop	{r4, r5, pc}
  28:	00000000 	.word	0x00000000

0000002c <_getpid_r>:
  2c:	b500      	push	{lr}
  2e:	f7ff fffe 	bl	0 <_getpid>
  32:	bd00      	pop	{pc}

execr.o:     file format elf32-littlearm


Disassembly of section .text:

00000000 <_execve_r>:
   0:	b530      	push	{r4, r5, lr}
   2:	1c05      	adds	r5, r0, #0
   4:	1c08      	adds	r0, r1, #0
   6:	1c11      	adds	r1, r2, #0
   8:	1c1a      	adds	r2, r3, #0
   a:	4c08      	ldr	r4, [pc, #32]	@ (2c <_execve_r+0x2c>)
   c:	2300      	movs	r3, #0
   e:	6023      	str	r3, [r4, #0]
  10:	f7ff fffe 	bl	0 <_execve>
  14:	1c01      	adds	r1, r0, #0
  16:	2001      	movs	r0, #1
  18:	4240      	negs	r0, r0
  1a:	4281      	cmp	r1, r0
  1c:	d103      	bne.n	26 <_execve_r+0x26>
  1e:	6820      	ldr	r0, [r4, #0]
  20:	2800      	cmp	r0, #0
  22:	d000      	beq.n	26 <_execve_r+0x26>
  24:	6028      	str	r0, [r5, #0]
  26:	1c08      	adds	r0, r1, #0
  28:	bd30      	pop	{r4, r5, pc}
  2a:	0000      	.short	0x0000
  2c:	00000000 	.word	0x00000000

00000030 <_fork_r>:
  30:	b530      	push	{r4, r5, lr}
  32:	1c05      	adds	r5, r0, #0
  34:	4c07      	ldr	r4, [pc, #28]	@ (54 <_fork_r+0x24>)
  36:	2000      	movs	r0, #0
  38:	6020      	str	r0, [r4, #0]
  3a:	f7ff fffe 	bl	0 <_fork>
  3e:	1c01      	adds	r1, r0, #0
  40:	2001      	movs	r0, #1
  42:	4240      	negs	r0, r0
  44:	4281      	cmp	r1, r0
  46:	d103      	bne.n	50 <_fork_r+0x20>
  48:	6820      	ldr	r0, [r4, #0]
  4a:	2800      	cmp	r0, #0
  4c:	d000      	beq.n	50 <_fork_r+0x20>
  4e:	6028      	str	r0, [r5, #0]
  50:	1c08      	adds	r0, r1, #0
  52:	bd30      	pop	{r4, r5, pc}
  54:	00000000 	.word	0x00000000

00000058 <_wait_r>:
  58:	b530      	push	{r4, r5, lr}
  5a:	1c05      	adds	r5, r0, #0
  5c:	1c08      	adds	r0, r1, #0
  5e:	4c08      	ldr	r4, [pc, #32]	@ (80 <_wait_r+0x28>)
  60:	2100      	movs	r1, #0
  62:	6021      	str	r1, [r4, #0]
  64:	f7ff fffe 	bl	0 <_wait>
  68:	1c01      	adds	r1, r0, #0
  6a:	2001      	movs	r0, #1
  6c:	4240      	negs	r0, r0
  6e:	4281      	cmp	r1, r0
  70:	d103      	bne.n	7a <_wait_r+0x22>
  72:	6820      	ldr	r0, [r4, #0]
  74:	2800      	cmp	r0, #0
  76:	d000      	beq.n	7a <_wait_r+0x22>
  78:	6028      	str	r0, [r5, #0]
  7a:	1c08      	adds	r0, r1, #0
  7c:	bd30      	pop	{r4, r5, pc}
  7e:	0000      	.short	0x0000
  80:	00000000 	.word	0x00000000

reent.o:     file format elf32-littlearm


Disassembly of section .text:

00000000 <cleanup_glue>:
   0:	b530      	push	{r4, r5, lr}
   2:	1c04      	adds	r4, r0, #0
   4:	1c0d      	adds	r5, r1, #0
   6:	6829      	ldr	r1, [r5, #0]
   8:	2900      	cmp	r1, #0
   a:	d001      	beq.n	10 <cleanup_glue+0x10>
   c:	f7ff fffe 	bl	0 <cleanup_glue>
  10:	1c20      	adds	r0, r4, #0
  12:	1c29      	adds	r1, r5, #0
  14:	f7ff fffe 	bl	0 <_free_r>
  18:	bd30      	pop	{r4, r5, pc}
	...

0000001c <_reclaim_reent>:
  1c:	b570      	push	{r4, r5, r6, lr}
  1e:	1c05      	adds	r5, r0, #0
  20:	4823      	ldr	r0, [pc, #140]	@ (b0 <_reclaim_reent+0x94>)
  22:	6800      	ldr	r0, [r0, #0]
  24:	4285      	cmp	r5, r0
  26:	d041      	beq.n	ac <_reclaim_reent+0x90>
  28:	6ce9      	ldr	r1, [r5, #76]	@ 0x4c
  2a:	2900      	cmp	r1, #0
  2c:	d014      	beq.n	58 <_reclaim_reent+0x3c>
  2e:	2200      	movs	r2, #0
  30:	0090      	lsls	r0, r2, #2
  32:	1840      	adds	r0, r0, r1
  34:	6804      	ldr	r4, [r0, #0]
  36:	1c56      	adds	r6, r2, #1
  38:	2c00      	cmp	r4, #0
  3a:	d006      	beq.n	4a <_reclaim_reent+0x2e>
  3c:	1c21      	adds	r1, r4, #0
  3e:	6824      	ldr	r4, [r4, #0]
  40:	1c28      	adds	r0, r5, #0
  42:	f7ff fffe 	bl	0 <_free_r>
  46:	2c00      	cmp	r4, #0
  48:	d1f8      	bne.n	3c <_reclaim_reent+0x20>
  4a:	1c32      	adds	r2, r6, #0
  4c:	6ce9      	ldr	r1, [r5, #76]	@ 0x4c
  4e:	2a0e      	cmp	r2, #14
  50:	ddee      	ble.n	30 <_reclaim_reent+0x14>
  52:	1c28      	adds	r0, r5, #0
  54:	f7ff fffe 	bl	0 <_free_r>
  58:	21a4      	movs	r1, #164	@ 0xa4
  5a:	0049      	lsls	r1, r1, #1
  5c:	1868      	adds	r0, r5, r1
  5e:	6801      	ldr	r1, [r0, #0]
  60:	2900      	cmp	r1, #0
  62:	d00d      	beq.n	80 <_reclaim_reent+0x64>
  64:	22a6      	movs	r2, #166	@ 0xa6
  66:	0052      	lsls	r2, r2, #1
  68:	18a8      	adds	r0, r5, r2
  6a:	4281      	cmp	r1, r0
  6c:	d008      	beq.n	80 <_reclaim_reent+0x64>
  6e:	1c0c      	adds	r4, r1, #0
  70:	1c06      	adds	r6, r0, #0
  72:	1c21      	adds	r1, r4, #0
  74:	6824      	ldr	r4, [r4, #0]
  76:	1c28      	adds	r0, r5, #0
  78:	f7ff fffe 	bl	0 <_free_r>
  7c:	42b4      	cmp	r4, r6
  7e:	d1f8      	bne.n	72 <_reclaim_reent+0x56>
  80:	6d69      	ldr	r1, [r5, #84]	@ 0x54
  82:	2900      	cmp	r1, #0
  84:	d002      	beq.n	8c <_reclaim_reent+0x70>
  86:	1c28      	adds	r0, r5, #0
  88:	f7ff fffe 	bl	0 <_free_r>
  8c:	6ba8      	ldr	r0, [r5, #56]	@ 0x38
  8e:	2800      	cmp	r0, #0
  90:	d00c      	beq.n	ac <_reclaim_reent+0x90>
  92:	6be9      	ldr	r1, [r5, #60]	@ 0x3c
  94:	1c28      	adds	r0, r5, #0
  96:	f7ff fffe 	bl	0 <_call_via_r1>
  9a:	21ec      	movs	r1, #236	@ 0xec
  9c:	0049      	lsls	r1, r1, #1
  9e:	1868      	adds	r0, r5, r1
  a0:	6801      	ldr	r1, [r0, #0]
  a2:	2900      	cmp	r1, #0
  a4:	d002      	beq.n	ac <_reclaim_reent+0x90>
  a6:	1c28      	adds	r0, r5, #0
  a8:	f7ff fffe 	bl	0 <cleanup_glue>
  ac:	bd70      	pop	{r4, r5, r6, pc}
  ae:	0000      	.short	0x0000
  b0:	00000000 	.word	0x00000000

000000b4 <_wrapup_reent>:
  b4:	b5f0      	push	{r4, r5, r6, r7, lr}
  b6:	1c07      	adds	r7, r0, #0
  b8:	2f00      	cmp	r7, #0
  ba:	d101      	bne.n	c0 <_wrapup_reent+0xc>
  bc:	480f      	ldr	r0, [pc, #60]	@ (fc <_wrapup_reent+0x48>)
  be:	6807      	ldr	r7, [r0, #0]
  c0:	21a4      	movs	r1, #164	@ 0xa4
  c2:	0049      	lsls	r1, r1, #1
  c4:	1878      	adds	r0, r7, r1
  c6:	6806      	ldr	r6, [r0, #0]
  c8:	2e00      	cmp	r6, #0
  ca:	d010      	beq.n	ee <_wrapup_reent+0x3a>
  cc:	6874      	ldr	r4, [r6, #4]
  ce:	3c01      	subs	r4, #1
  d0:	2c00      	cmp	r4, #0
  d2:	db09      	blt.n	e8 <_wrapup_reent+0x34>
  d4:	00a0      	lsls	r0, r4, #2
  d6:	3008      	adds	r0, #8
  d8:	1985      	adds	r5, r0, r6
  da:	6828      	ldr	r0, [r5, #0]
  dc:	f7ff fffe 	bl	0 <_call_via_r0>
  e0:	3d04      	subs	r5, #4
  e2:	3c01      	subs	r4, #1
  e4:	2c00      	cmp	r4, #0
  e6:	daf8      	bge.n	da <_wrapup_reent+0x26>
  e8:	6836      	ldr	r6, [r6, #0]
  ea:	2e00      	cmp	r6, #0
  ec:	d1ee      	bne.n	cc <_wrapup_reent+0x18>
  ee:	6bf9      	ldr	r1, [r7, #60]	@ 0x3c
  f0:	2900      	cmp	r1, #0
  f2:	d002      	beq.n	fa <_wrapup_reent+0x46>
  f4:	1c38      	adds	r0, r7, #0
  f6:	f7ff fffe 	bl	0 <_call_via_r1>
  fa:	bdf0      	pop	{r4, r5, r6, r7, pc}
  fc:	00000000 	.word	0x00000000

fstatr.o:     file format elf32-littlearm


Disassembly of section .text:

00000000 <_fstat_r>:
   0:	b530      	push	{r4, r5, lr}
   2:	1c05      	adds	r5, r0, #0
   4:	1c08      	adds	r0, r1, #0
   6:	1c11      	adds	r1, r2, #0
   8:	4c07      	ldr	r4, [pc, #28]	@ (28 <_fstat_r+0x28>)
   a:	2200      	movs	r2, #0
   c:	6022      	str	r2, [r4, #0]
   e:	f7ff fffe 	bl	0 <_fstat>
  12:	1c01      	adds	r1, r0, #0
  14:	2001      	movs	r0, #1
  16:	4240      	negs	r0, r0
  18:	4281      	cmp	r1, r0
  1a:	d103      	bne.n	24 <_fstat_r+0x24>
  1c:	6820      	ldr	r0, [r4, #0]
  1e:	2800      	cmp	r0, #0
  20:	d000      	beq.n	24 <_fstat_r+0x24>
  22:	6028      	str	r0, [r5, #0]
  24:	1c08      	adds	r0, r1, #0
  26:	bd30      	pop	{r4, r5, pc}
  28:	00000000 	.word	0x00000000

sbrkr.o:     file format elf32-littlearm


Disassembly of section .text:

00000000 <_sbrk_r>:
   0:	b530      	push	{r4, r5, lr}
   2:	1c05      	adds	r5, r0, #0
   4:	1c08      	adds	r0, r1, #0
   6:	4c08      	ldr	r4, [pc, #32]	@ (28 <_sbrk_r+0x28>)
   8:	2100      	movs	r1, #0
   a:	6021      	str	r1, [r4, #0]
   c:	f7ff fffe 	bl	0 <_sbrk>
  10:	1c01      	adds	r1, r0, #0
  12:	2001      	movs	r0, #1
  14:	4240      	negs	r0, r0
  16:	4281      	cmp	r1, r0
  18:	d103      	bne.n	22 <_sbrk_r+0x22>
  1a:	6820      	ldr	r0, [r4, #0]
  1c:	2800      	cmp	r0, #0
  1e:	d000      	beq.n	22 <_sbrk_r+0x22>
  20:	6028      	str	r0, [r5, #0]
  22:	1c08      	adds	r0, r1, #0
  24:	bd30      	pop	{r4, r5, pc}
  26:	0000      	.short	0x0000
  28:	00000000 	.word	0x00000000

impure.o:     file format elf32-littlearm


openr.o:     file format elf32-littlearm


Disassembly of section .text:

00000000 <_open_r>:
   0:	b530      	push	{r4, r5, lr}
   2:	1c05      	adds	r5, r0, #0
   4:	1c08      	adds	r0, r1, #0
   6:	1c11      	adds	r1, r2, #0
   8:	1c1a      	adds	r2, r3, #0
   a:	4c08      	ldr	r4, [pc, #32]	@ (2c <_open_r+0x2c>)
   c:	2300      	movs	r3, #0
   e:	6023      	str	r3, [r4, #0]
  10:	f7ff fffe 	bl	0 <_open>
  14:	1c01      	adds	r1, r0, #0
  16:	2001      	movs	r0, #1
  18:	4240      	negs	r0, r0
  1a:	4281      	cmp	r1, r0
  1c:	d103      	bne.n	26 <_open_r+0x26>
  1e:	6820      	ldr	r0, [r4, #0]
  20:	2800      	cmp	r0, #0
  22:	d000      	beq.n	26 <_open_r+0x26>
  24:	6028      	str	r0, [r5, #0]
  26:	1c08      	adds	r0, r1, #0
  28:	bd30      	pop	{r4, r5, pc}
  2a:	0000      	.short	0x0000
  2c:	00000000 	.word	0x00000000

closer.o:     file format elf32-littlearm


Disassembly of section .text:

00000000 <_close_r>:
   0:	b530      	push	{r4, r5, lr}
   2:	1c05      	adds	r5, r0, #0
   4:	1c08      	adds	r0, r1, #0
   6:	4c08      	ldr	r4, [pc, #32]	@ (28 <_close_r+0x28>)
   8:	2100      	movs	r1, #0
   a:	6021      	str	r1, [r4, #0]
   c:	f7ff fffe 	bl	0 <_close>
  10:	1c01      	adds	r1, r0, #0
  12:	2001      	movs	r0, #1
  14:	4240      	negs	r0, r0
  16:	4281      	cmp	r1, r0
  18:	d103      	bne.n	22 <_close_r+0x22>
  1a:	6820      	ldr	r0, [r4, #0]
  1c:	2800      	cmp	r0, #0
  1e:	d000      	beq.n	22 <_close_r+0x22>
  20:	6028      	str	r0, [r5, #0]
  22:	1c08      	adds	r0, r1, #0
  24:	bd30      	pop	{r4, r5, pc}
  26:	0000      	.short	0x0000
  28:	00000000 	.word	0x00000000

libcfunc.o:     file format elf32-littlearm


Disassembly of section .text:

00000000 <abort>:
   0:	469c      	mov	ip, r3
   2:	4643      	mov	r3, r8
   4:	b408      	push	{r3}
   6:	4663      	mov	r3, ip
   8:	2218      	movs	r2, #24
   a:	4b04      	ldr	r3, [pc, #16]	@ (1c <abort+0x1c>)
   c:	1c10      	adds	r0, r2, #0
   e:	1c19      	adds	r1, r3, #0
  10:	dfab      	svc	171	@ 0xab
  12:	4680      	mov	r8, r0
  14:	bc08      	pop	{r3}
  16:	4698      	mov	r8, r3
  18:	4770      	bx	lr
  1a:	0000      	.short	0x0000
  1c:	00020022 	.word	0x00020022

00000020 <isatty>:
  20:	2001      	movs	r0, #1
  22:	4770      	bx	lr

00000024 <alarm>:
  24:	4770      	bx	lr
	...

syscalls.o:     file format elf32-littlearm


Disassembly of section .text:

00000000 <findslot>:
   0:	1c03      	adds	r3, r0, #0
   2:	2100      	movs	r1, #0
   4:	4a00      	ldr	r2, [pc, #0]	@ (8 <findslot+0x8>)
   6:	e005      	b.n	14 <findslot+0x14>
   8:	00000010 	.word	0x00000010
   c:	3208      	adds	r2, #8
   e:	3101      	adds	r1, #1
  10:	2913      	cmp	r1, #19
  12:	dc02      	bgt.n	1a <findslot+0x1a>
  14:	6810      	ldr	r0, [r2, #0]
  16:	4298      	cmp	r0, r3
  18:	d1f8      	bne.n	c <findslot+0xc>
  1a:	1c08      	adds	r0, r1, #0
  1c:	4770      	bx	lr
	...

00000020 <remap_handle>:
  20:	1c02      	adds	r2, r0, #0
  22:	4804      	ldr	r0, [pc, #16]	@ (34 <remap_handle+0x14>)
  24:	6801      	ldr	r1, [r0, #0]
  26:	6848      	ldr	r0, [r1, #4]
  28:	230e      	movs	r3, #14
  2a:	5ec0      	ldrsh	r0, [r0, r3]
  2c:	4282      	cmp	r2, r0
  2e:	d105      	bne.n	3c <remap_handle+0x1c>
  30:	4801      	ldr	r0, [pc, #4]	@ (38 <remap_handle+0x18>)
  32:	e016      	b.n	62 <remap_handle+0x42>
  34:	00000000 	.word	0x00000000
  38:	00000004 	.word	0x00000004
  3c:	6888      	ldr	r0, [r1, #8]
  3e:	230e      	movs	r3, #14
  40:	5ec0      	ldrsh	r0, [r0, r3]
  42:	4282      	cmp	r2, r0
  44:	d104      	bne.n	50 <remap_handle+0x30>
  46:	4801      	ldr	r0, [pc, #4]	@ (4c <remap_handle+0x2c>)
  48:	e00b      	b.n	62 <remap_handle+0x42>
  4a:	0000      	.short	0x0000
  4c:	00000008 	.word	0x00000008
  50:	68c8      	ldr	r0, [r1, #12]
  52:	210e      	movs	r1, #14
  54:	5e40      	ldrsh	r0, [r0, r1]
  56:	4282      	cmp	r2, r0
  58:	d002      	beq.n	60 <remap_handle+0x40>
  5a:	1c10      	adds	r0, r2, #0
  5c:	3820      	subs	r0, #32
  5e:	e001      	b.n	64 <remap_handle+0x44>
  60:	4801      	ldr	r0, [pc, #4]	@ (68 <remap_handle+0x48>)
  62:	6800      	ldr	r0, [r0, #0]
  64:	4770      	bx	lr
  66:	0000      	.short	0x0000
  68:	0000000c 	.word	0x0000000c

0000006c <initialise_monitor_handles>:
  6c:	b530      	push	{r4, r5, lr}
  6e:	b083      	sub	sp, #12
  70:	4c15      	ldr	r4, [pc, #84]	@ (c8 <initialise_monitor_handles+0x5c>)
  72:	9400      	str	r4, [sp, #0]
  74:	2303      	movs	r3, #3
  76:	9302      	str	r3, [sp, #8]
  78:	2000      	movs	r0, #0
  7a:	9001      	str	r0, [sp, #4]
  7c:	2501      	movs	r5, #1
  7e:	1c28      	adds	r0, r5, #0
  80:	4669      	mov	r1, sp
  82:	dfab      	svc	171	@ 0xab
  84:	1c02      	adds	r2, r0, #0
  86:	4d11      	ldr	r5, [pc, #68]	@ (cc <initialise_monitor_handles+0x60>)
  88:	602a      	str	r2, [r5, #0]
  8a:	9400      	str	r4, [sp, #0]
  8c:	9302      	str	r3, [sp, #8]
  8e:	2004      	movs	r0, #4
  90:	9001      	str	r0, [sp, #4]
  92:	4b0f      	ldr	r3, [pc, #60]	@ (d0 <initialise_monitor_handles+0x64>)
  94:	2401      	movs	r4, #1
  96:	1c20      	adds	r0, r4, #0
  98:	4669      	mov	r1, sp
  9a:	dfab      	svc	171	@ 0xab
  9c:	1c02      	adds	r2, r0, #0
  9e:	480d      	ldr	r0, [pc, #52]	@ (d4 <initialise_monitor_handles+0x68>)
  a0:	6002      	str	r2, [r0, #0]
  a2:	601a      	str	r2, [r3, #0]
  a4:	4a0c      	ldr	r2, [pc, #48]	@ (d8 <initialise_monitor_handles+0x6c>)
  a6:	1c11      	adds	r1, r2, #0
  a8:	3c02      	subs	r4, #2
  aa:	1c10      	adds	r0, r2, #0
  ac:	3098      	adds	r0, #152	@ 0x98
  ae:	6004      	str	r4, [r0, #0]
  b0:	3808      	subs	r0, #8
  b2:	4288      	cmp	r0, r1
  b4:	dafb      	bge.n	ae <initialise_monitor_handles+0x42>
  b6:	2000      	movs	r0, #0
  b8:	6829      	ldr	r1, [r5, #0]
  ba:	6011      	str	r1, [r2, #0]
  bc:	6050      	str	r0, [r2, #4]
  be:	6819      	ldr	r1, [r3, #0]
  c0:	6091      	str	r1, [r2, #8]
  c2:	60d0      	str	r0, [r2, #12]
  c4:	b003      	add	sp, #12
  c6:	bd30      	pop	{r4, r5, pc}
  c8:	00000000 	.word	0x00000000
  cc:	00000004 	.word	0x00000004
  d0:	00000008 	.word	0x00000008
  d4:	0000000c 	.word	0x0000000c
  d8:	00000010 	.word	0x00000010

000000dc <get_errno>:
  dc:	b510      	push	{r4, lr}
  de:	2313      	movs	r3, #19
  e0:	2400      	movs	r4, #0
  e2:	1c18      	adds	r0, r3, #0
  e4:	1c21      	adds	r1, r4, #0
  e6:	dfab      	svc	171	@ 0xab
  e8:	1c02      	adds	r2, r0, #0
  ea:	1c10      	adds	r0, r2, #0
  ec:	bd10      	pop	{r4, pc}
	...

000000f0 <error>:
  f0:	b530      	push	{r4, r5, lr}
  f2:	1c05      	adds	r5, r0, #0
  f4:	f7ff fffe 	bl	0 <__errno>
  f8:	1c04      	adds	r4, r0, #0
  fa:	f7ff ffef 	bl	dc <get_errno>
  fe:	6020      	str	r0, [r4, #0]
 100:	1c28      	adds	r0, r5, #0
 102:	bd30      	pop	{r4, r5, pc}

00000104 <wrap>:
 104:	b500      	push	{lr}
 106:	1c01      	adds	r1, r0, #0
 108:	2001      	movs	r0, #1
 10a:	4240      	negs	r0, r0
 10c:	4281      	cmp	r1, r0
 10e:	d001      	beq.n	114 <wrap+0x10>
 110:	1c08      	adds	r0, r1, #0
 112:	e002      	b.n	11a <wrap+0x16>
 114:	1c08      	adds	r0, r1, #0
 116:	f7ff ffeb 	bl	f0 <error>
 11a:	bd00      	pop	{pc}

0000011c <_swiread>:
 11c:	b530      	push	{r4, r5, lr}
 11e:	b083      	sub	sp, #12
 120:	1c0c      	adds	r4, r1, #0
 122:	1c15      	adds	r5, r2, #0
 124:	f7ff ff7c 	bl	20 <remap_handle>
 128:	9000      	str	r0, [sp, #0]
 12a:	9401      	str	r4, [sp, #4]
 12c:	9502      	str	r5, [sp, #8]
 12e:	2306      	movs	r3, #6
 130:	1c18      	adds	r0, r3, #0
 132:	4669      	mov	r1, sp
 134:	dfab      	svc	171	@ 0xab
 136:	1c02      	adds	r2, r0, #0
 138:	1c10      	adds	r0, r2, #0
 13a:	b003      	add	sp, #12
 13c:	bd30      	pop	{r4, r5, pc}
	...

00000140 <_read>:
 140:	b5f0      	push	{r4, r5, r6, r7, lr}
 142:	1c04      	adds	r4, r0, #0
 144:	1c0d      	adds	r5, r1, #0
 146:	1c17      	adds	r7, r2, #0
 148:	f7ff ff6a 	bl	20 <remap_handle>
 14c:	f7ff ff58 	bl	0 <findslot>
 150:	1c06      	adds	r6, r0, #0
 152:	1c20      	adds	r0, r4, #0
 154:	1c29      	adds	r1, r5, #0
 156:	1c3a      	adds	r2, r7, #0
 158:	f7ff fffe 	bl	11c <_swiread>
 15c:	2800      	cmp	r0, #0
 15e:	da04      	bge.n	16a <_read+0x2a>
 160:	2001      	movs	r0, #1
 162:	4240      	negs	r0, r0
 164:	f7ff ffc4 	bl	f0 <error>
 168:	e00a      	b.n	180 <_read+0x40>
 16a:	1a3a      	subs	r2, r7, r0
 16c:	2e14      	cmp	r6, #20
 16e:	d006      	beq.n	17e <_read+0x3e>
 170:	4804      	ldr	r0, [pc, #16]	@ (184 <_read+0x44>)
 172:	00f1      	lsls	r1, r6, #3
 174:	3004      	adds	r0, #4
 176:	1809      	adds	r1, r1, r0
 178:	6808      	ldr	r0, [r1, #0]
 17a:	1880      	adds	r0, r0, r2
 17c:	6008      	str	r0, [r1, #0]
 17e:	1c10      	adds	r0, r2, #0
 180:	bdf0      	pop	{r4, r5, r6, r7, pc}
 182:	0000      	.short	0x0000
 184:	00000010 	.word	0x00000010

00000188 <_swilseek>:
 188:	b5f0      	push	{r4, r5, r6, r7, lr}
 18a:	4647      	mov	r7, r8
 18c:	b480      	push	{r7}
 18e:	b082      	sub	sp, #8
 190:	4680      	mov	r8, r0
 192:	1c0d      	adds	r5, r1, #0
 194:	1c14      	adds	r4, r2, #0
 196:	f7ff ff43 	bl	20 <remap_handle>
 19a:	1c07      	adds	r7, r0, #0
 19c:	f7ff ff30 	bl	0 <findslot>
 1a0:	1c06      	adds	r6, r0, #0
 1a2:	2c01      	cmp	r4, #1
 1a4:	d10b      	bne.n	1be <_swilseek+0x36>
 1a6:	2e14      	cmp	r6, #20
 1a8:	d102      	bne.n	1b0 <_swilseek+0x28>
 1aa:	2001      	movs	r0, #1
 1ac:	4240      	negs	r0, r0
 1ae:	e027      	b.n	200 <_swilseek+0x78>
 1b0:	4815      	ldr	r0, [pc, #84]	@ (208 <_swilseek+0x80>)
 1b2:	00f1      	lsls	r1, r6, #3
 1b4:	3004      	adds	r0, #4
 1b6:	1809      	adds	r1, r1, r0
 1b8:	6808      	ldr	r0, [r1, #0]
 1ba:	182d      	adds	r5, r5, r0
 1bc:	2400      	movs	r4, #0
 1be:	2c02      	cmp	r4, #2
 1c0:	d106      	bne.n	1d0 <_swilseek+0x48>
 1c2:	9700      	str	r7, [sp, #0]
 1c4:	230c      	movs	r3, #12
 1c6:	1c18      	adds	r0, r3, #0
 1c8:	4669      	mov	r1, sp
 1ca:	dfab      	svc	171	@ 0xab
 1cc:	1c02      	adds	r2, r0, #0
 1ce:	18ad      	adds	r5, r5, r2
 1d0:	4640      	mov	r0, r8
 1d2:	f7ff ff25 	bl	20 <remap_handle>
 1d6:	9000      	str	r0, [sp, #0]
 1d8:	9501      	str	r5, [sp, #4]
 1da:	230a      	movs	r3, #10
 1dc:	1c18      	adds	r0, r3, #0
 1de:	4669      	mov	r1, sp
 1e0:	dfab      	svc	171	@ 0xab
 1e2:	1c02      	adds	r2, r0, #0
 1e4:	2e14      	cmp	r6, #20
 1e6:	d006      	beq.n	1f6 <_swilseek+0x6e>
 1e8:	2a00      	cmp	r2, #0
 1ea:	d104      	bne.n	1f6 <_swilseek+0x6e>
 1ec:	4806      	ldr	r0, [pc, #24]	@ (208 <_swilseek+0x80>)
 1ee:	00f1      	lsls	r1, r6, #3
 1f0:	3004      	adds	r0, #4
 1f2:	1809      	adds	r1, r1, r0
 1f4:	600d      	str	r5, [r1, #0]
 1f6:	2001      	movs	r0, #1
 1f8:	4240      	negs	r0, r0
 1fa:	2a00      	cmp	r2, #0
 1fc:	d100      	bne.n	200 <_swilseek+0x78>
 1fe:	1c28      	adds	r0, r5, #0
 200:	b002      	add	sp, #8
 202:	bc08      	pop	{r3}
 204:	4698      	mov	r8, r3
 206:	bdf0      	pop	{r4, r5, r6, r7, pc}
 208:	00000010 	.word	0x00000010

0000020c <_lseek>:
 20c:	b500      	push	{lr}
 20e:	f7ff fffe 	bl	188 <_swilseek>
 212:	f7ff ff77 	bl	104 <wrap>
 216:	bd00      	pop	{pc}

00000218 <_swiwrite>:
 218:	b530      	push	{r4, r5, lr}
 21a:	b083      	sub	sp, #12
 21c:	1c0c      	adds	r4, r1, #0
 21e:	1c15      	adds	r5, r2, #0
 220:	f7ff fefe 	bl	20 <remap_handle>
 224:	9000      	str	r0, [sp, #0]
 226:	9401      	str	r4, [sp, #4]
 228:	9502      	str	r5, [sp, #8]
 22a:	2305      	movs	r3, #5
 22c:	1c18      	adds	r0, r3, #0
 22e:	4669      	mov	r1, sp
 230:	dfab      	svc	171	@ 0xab
 232:	1c02      	adds	r2, r0, #0
 234:	1c10      	adds	r0, r2, #0
 236:	b003      	add	sp, #12
 238:	bd30      	pop	{r4, r5, pc}
	...

0000023c <_write>:
 23c:	b5f0      	push	{r4, r5, r6, r7, lr}
 23e:	1c04      	adds	r4, r0, #0
 240:	1c0d      	adds	r5, r1, #0
 242:	1c16      	adds	r6, r2, #0
 244:	f7ff feec 	bl	20 <remap_handle>
 248:	f7ff feda 	bl	0 <findslot>
 24c:	1c07      	adds	r7, r0, #0
 24e:	1c20      	adds	r0, r4, #0
 250:	1c29      	adds	r1, r5, #0
 252:	1c32      	adds	r2, r6, #0
 254:	f7ff fffe 	bl	218 <_swiwrite>
 258:	2101      	movs	r1, #1
 25a:	4249      	negs	r1, r1
 25c:	4288      	cmp	r0, r1
 25e:	d001      	beq.n	264 <_write+0x28>
 260:	42b0      	cmp	r0, r6
 262:	d103      	bne.n	26c <_write+0x30>
 264:	1c08      	adds	r0, r1, #0
 266:	f7ff ff43 	bl	f0 <error>
 26a:	e00a      	b.n	282 <_write+0x46>
 26c:	1a32      	subs	r2, r6, r0
 26e:	2f14      	cmp	r7, #20
 270:	d006      	beq.n	280 <_write+0x44>
 272:	4804      	ldr	r0, [pc, #16]	@ (284 <_write+0x48>)
 274:	00f9      	lsls	r1, r7, #3
 276:	3004      	adds	r0, #4
 278:	1809      	adds	r1, r1, r0
 27a:	6808      	ldr	r0, [r1, #0]
 27c:	1880      	adds	r0, r0, r2
 27e:	6008      	str	r0, [r1, #0]
 280:	1c10      	adds	r0, r2, #0
 282:	bdf0      	pop	{r4, r5, r6, r7, pc}
 284:	00000010 	.word	0x00000010

00000288 <_swiopen>:
 288:	b5f0      	push	{r4, r5, r6, r7, lr}
 28a:	4647      	mov	r7, r8
 28c:	b480      	push	{r7}
 28e:	b083      	sub	sp, #12
 290:	1c07      	adds	r7, r0, #0
 292:	1c0c      	adds	r4, r1, #0
 294:	2500      	movs	r5, #0
 296:	2601      	movs	r6, #1
 298:	4276      	negs	r6, r6
 29a:	1c30      	adds	r0, r6, #0
 29c:	f7ff feb0 	bl	0 <findslot>
 2a0:	4680      	mov	r8, r0
 2a2:	2814      	cmp	r0, #20
 2a4:	d101      	bne.n	2aa <_swiopen+0x22>
 2a6:	1c30      	adds	r0, r6, #0
 2a8:	e039      	b.n	31e <_swiopen+0x96>
 2aa:	2002      	movs	r0, #2
 2ac:	4020      	ands	r0, r4
 2ae:	2800      	cmp	r0, #0
 2b0:	d000      	beq.n	2b4 <_swiopen+0x2c>
 2b2:	2502      	movs	r5, #2
 2b4:	2080      	movs	r0, #128	@ 0x80
 2b6:	0080      	lsls	r0, r0, #2
 2b8:	4020      	ands	r0, r4
 2ba:	2800      	cmp	r0, #0
 2bc:	d001      	beq.n	2c2 <_swiopen+0x3a>
 2be:	2004      	movs	r0, #4
 2c0:	4305      	orrs	r5, r0
 2c2:	2080      	movs	r0, #128	@ 0x80
 2c4:	00c0      	lsls	r0, r0, #3
 2c6:	4020      	ands	r0, r4
 2c8:	2800      	cmp	r0, #0
 2ca:	d001      	beq.n	2d0 <_swiopen+0x48>
 2cc:	2004      	movs	r0, #4
 2ce:	4305      	orrs	r5, r0
 2d0:	2108      	movs	r1, #8
 2d2:	400c      	ands	r4, r1
 2d4:	2c00      	cmp	r4, #0
 2d6:	d003      	beq.n	2e0 <_swiopen+0x58>
 2d8:	2005      	movs	r0, #5
 2da:	4240      	negs	r0, r0
 2dc:	4005      	ands	r5, r0
 2de:	430d      	orrs	r5, r1
 2e0:	9700      	str	r7, [sp, #0]
 2e2:	1c38      	adds	r0, r7, #0
 2e4:	f7ff fffe 	bl	0 <strlen>
 2e8:	9002      	str	r0, [sp, #8]
 2ea:	9501      	str	r5, [sp, #4]
 2ec:	2201      	movs	r2, #1
 2ee:	1c10      	adds	r0, r2, #0
 2f0:	4669      	mov	r1, sp
 2f2:	dfab      	svc	171	@ 0xab
 2f4:	1c03      	adds	r3, r0, #0
 2f6:	2b00      	cmp	r3, #0
 2f8:	db0e      	blt.n	318 <_swiopen+0x90>
 2fa:	4806      	ldr	r0, [pc, #24]	@ (314 <_swiopen+0x8c>)
 2fc:	4641      	mov	r1, r8
 2fe:	00ca      	lsls	r2, r1, #3
 300:	1811      	adds	r1, r2, r0
 302:	600b      	str	r3, [r1, #0]
 304:	3004      	adds	r0, #4
 306:	1812      	adds	r2, r2, r0
 308:	2000      	movs	r0, #0
 30a:	6010      	str	r0, [r2, #0]
 30c:	1c18      	adds	r0, r3, #0
 30e:	3020      	adds	r0, #32
 310:	e005      	b.n	31e <_swiopen+0x96>
 312:	0000      	.short	0x0000
 314:	00000010 	.word	0x00000010
 318:	1c18      	adds	r0, r3, #0
 31a:	f7ff fee9 	bl	f0 <error>
 31e:	b003      	add	sp, #12
 320:	bc08      	pop	{r3}
 322:	4698      	mov	r8, r3
 324:	bdf0      	pop	{r4, r5, r6, r7, pc}
	...

00000328 <_open>:
 328:	b40e      	push	{r1, r2, r3}
 32a:	b500      	push	{lr}
 32c:	9901      	ldr	r1, [sp, #4]
 32e:	f7ff fffe 	bl	288 <_swiopen>
 332:	f7ff fee7 	bl	104 <wrap>
 336:	bc08      	pop	{r3}
 338:	b003      	add	sp, #12
 33a:	4718      	bx	r3

0000033c <_swiclose>:
 33c:	b500      	push	{lr}
 33e:	b081      	sub	sp, #4
 340:	f7ff fe6e 	bl	20 <remap_handle>
 344:	9000      	str	r0, [sp, #0]
 346:	f7ff fe5b 	bl	0 <findslot>
 34a:	1c01      	adds	r1, r0, #0
 34c:	2914      	cmp	r1, #20
 34e:	d005      	beq.n	35c <_swiclose+0x20>
 350:	4806      	ldr	r0, [pc, #24]	@ (36c <_swiclose+0x30>)
 352:	00c9      	lsls	r1, r1, #3
 354:	1809      	adds	r1, r1, r0
 356:	2001      	movs	r0, #1
 358:	4240      	negs	r0, r0
 35a:	6008      	str	r0, [r1, #0]
 35c:	2302      	movs	r3, #2
 35e:	1c18      	adds	r0, r3, #0
 360:	4669      	mov	r1, sp
 362:	dfab      	svc	171	@ 0xab
 364:	1c02      	adds	r2, r0, #0
 366:	1c10      	adds	r0, r2, #0
 368:	b001      	add	sp, #4
 36a:	bd00      	pop	{pc}
 36c:	00000010 	.word	0x00000010

00000370 <_close>:
 370:	b500      	push	{lr}
 372:	f7ff fffe 	bl	33c <_swiclose>
 376:	f7ff fec5 	bl	104 <wrap>
 37a:	bd00      	pop	{pc}

0000037c <_exit>:
 37c:	469c      	mov	ip, r3
 37e:	4643      	mov	r3, r8
 380:	b408      	push	{r3}
 382:	4663      	mov	r3, ip
 384:	2218      	movs	r2, #24
 386:	4b04      	ldr	r3, [pc, #16]	@ (398 <_exit+0x1c>)
 388:	1c10      	adds	r0, r2, #0
 38a:	1c19      	adds	r1, r3, #0
 38c:	dfab      	svc	171	@ 0xab
 38e:	4680      	mov	r8, r0
 390:	bc08      	pop	{r3}
 392:	4698      	mov	r8, r3
 394:	4770      	bx	lr
 396:	0000      	.short	0x0000
 398:	00020026 	.word	0x00020026

0000039c <_kill>:
 39c:	469c      	mov	ip, r3
 39e:	4643      	mov	r3, r8
 3a0:	b408      	push	{r3}
 3a2:	4663      	mov	r3, ip
 3a4:	2218      	movs	r2, #24
 3a6:	4b04      	ldr	r3, [pc, #16]	@ (3b8 <_kill+0x1c>)
 3a8:	1c10      	adds	r0, r2, #0
 3aa:	1c19      	adds	r1, r3, #0
 3ac:	dfab      	svc	171	@ 0xab
 3ae:	4680      	mov	r8, r0
 3b0:	bc08      	pop	{r3}
 3b2:	4698      	mov	r8, r3
 3b4:	4770      	bx	lr
 3b6:	0000      	.short	0x0000
 3b8:	00020026 	.word	0x00020026

000003bc <_getpid>:
 3bc:	2001      	movs	r0, #1
 3be:	4770      	bx	lr

000003c0 <_sbrk>:
 3c0:	b570      	push	{r4, r5, r6, lr}
 3c2:	1c06      	adds	r6, r0, #0
 3c4:	4c0a      	ldr	r4, [pc, #40]	@ (3f0 <_sbrk+0x30>)
 3c6:	6820      	ldr	r0, [r4, #0]
 3c8:	2800      	cmp	r0, #0
 3ca:	d101      	bne.n	3d0 <_sbrk+0x10>
 3cc:	4809      	ldr	r0, [pc, #36]	@ (3f4 <_sbrk+0x34>)
 3ce:	6020      	str	r0, [r4, #0]
 3d0:	6825      	ldr	r5, [r4, #0]
 3d2:	19a8      	adds	r0, r5, r6
 3d4:	4568      	cmp	r0, sp
 3d6:	d906      	bls.n	3e6 <_sbrk+0x26>
 3d8:	4907      	ldr	r1, [pc, #28]	@ (3f8 <_sbrk+0x38>)
 3da:	2001      	movs	r0, #1
 3dc:	2220      	movs	r2, #32
 3de:	f7ff fffe 	bl	23c <_write>
 3e2:	f7ff fffe 	bl	0 <abort>
 3e6:	6820      	ldr	r0, [r4, #0]
 3e8:	1980      	adds	r0, r0, r6
 3ea:	6020      	str	r0, [r4, #0]
 3ec:	1c28      	adds	r0, r5, #0
 3ee:	bd70      	pop	{r4, r5, r6, pc}
	...
 3f8:	00000004 	.word	0x00000004

000003fc <_fstat>:
 3fc:	2080      	movs	r0, #128	@ 0x80
 3fe:	0180      	lsls	r0, r0, #6
 400:	6048      	str	r0, [r1, #4]
 402:	2000      	movs	r0, #0
 404:	4770      	bx	lr
	...

00000408 <_unlink>:
 408:	2001      	movs	r0, #1
 40a:	4240      	negs	r0, r0
 40c:	4770      	bx	lr
	...

00000410 <_raise>:
 410:	4770      	bx	lr
	...

00000414 <_gettimeofday>:
 414:	b530      	push	{r4, r5, lr}
 416:	1c02      	adds	r2, r0, #0
 418:	1c0b      	adds	r3, r1, #0
 41a:	2a00      	cmp	r2, #0
 41c:	d009      	beq.n	432 <_gettimeofday+0x1e>
 41e:	2411      	movs	r4, #17
 420:	2500      	movs	r5, #0
 422:	1c20      	adds	r0, r4, #0
 424:	1c29      	adds	r1, r5, #0
 426:	dfab      	svc	171	@ 0xab
 428:	1c05      	adds	r5, r0, #0
 42a:	1c2c      	adds	r4, r5, #0
 42c:	6014      	str	r4, [r2, #0]
 42e:	2000      	movs	r0, #0
 430:	6050      	str	r0, [r2, #4]
 432:	2b00      	cmp	r3, #0
 434:	d002      	beq.n	43c <_gettimeofday+0x28>
 436:	2000      	movs	r0, #0
 438:	6018      	str	r0, [r3, #0]
 43a:	6058      	str	r0, [r3, #4]
 43c:	2000      	movs	r0, #0
 43e:	bd30      	pop	{r4, r5, pc}

00000440 <_times>:
 440:	b530      	push	{r4, r5, lr}
 442:	1c02      	adds	r2, r0, #0
 444:	2410      	movs	r4, #16
 446:	2500      	movs	r5, #0
 448:	1c20      	adds	r0, r4, #0
 44a:	1c29      	adds	r1, r5, #0
 44c:	dfab      	svc	171	@ 0xab
 44e:	1c03      	adds	r3, r0, #0
 450:	2a00      	cmp	r2, #0
 452:	d004      	beq.n	45e <_times+0x1e>
 454:	6013      	str	r3, [r2, #0]
 456:	2000      	movs	r0, #0
 458:	6050      	str	r0, [r2, #4]
 45a:	6090      	str	r0, [r2, #8]
 45c:	60d0      	str	r0, [r2, #12]
 45e:	1c18      	adds	r0, r3, #0
 460:	bd30      	pop	{r4, r5, pc}
	...

strstr.o:     file format elf32-littlearm


Disassembly of section .text:

00000000 <strstr>:
   0:	b510      	push	{r4, lr}
   2:	1c03      	adds	r3, r0, #0
   4:	1c0c      	adds	r4, r1, #0
   6:	7818      	ldrb	r0, [r3, #0]
   8:	2800      	cmp	r0, #0
   a:	d104      	bne.n	16 <strstr+0x16>
   c:	7820      	ldrb	r0, [r4, #0]
   e:	2800      	cmp	r0, #0
  10:	d115      	bne.n	3e <strstr+0x3e>
  12:	1c18      	adds	r0, r3, #0
  14:	e014      	b.n	40 <strstr+0x40>
  16:	2100      	movs	r1, #0
  18:	7820      	ldrb	r0, [r4, #0]
  1a:	2800      	cmp	r0, #0
  1c:	d0f9      	beq.n	12 <strstr+0x12>
  1e:	781a      	ldrb	r2, [r3, #0]
  20:	4290      	cmp	r0, r2
  22:	d108      	bne.n	36 <strstr+0x36>
  24:	3101      	adds	r1, #1
  26:	1860      	adds	r0, r4, r1
  28:	7802      	ldrb	r2, [r0, #0]
  2a:	2a00      	cmp	r2, #0
  2c:	d0f1      	beq.n	12 <strstr+0x12>
  2e:	1858      	adds	r0, r3, r1
  30:	7800      	ldrb	r0, [r0, #0]
  32:	4282      	cmp	r2, r0
  34:	d0f6      	beq.n	24 <strstr+0x24>
  36:	3301      	adds	r3, #1
  38:	7818      	ldrb	r0, [r3, #0]
  3a:	2800      	cmp	r0, #0
  3c:	d1eb      	bne.n	16 <strstr+0x16>
  3e:	2000      	movs	r0, #0
  40:	bd10      	pop	{r4, pc}
	...

memcmp.o:     file format elf32-littlearm


Disassembly of section .text:

00000000 <memcmp>:
   0:	b510      	push	{r4, lr}
   2:	1c14      	adds	r4, r2, #0
   4:	1c03      	adds	r3, r0, #0
   6:	1c0a      	adds	r2, r1, #0
   8:	2c03      	cmp	r4, #3
   a:	d917      	bls.n	3c <memcmp+0x3c>
   c:	4310      	orrs	r0, r2
   e:	2103      	movs	r1, #3
  10:	4008      	ands	r0, r1
  12:	2800      	cmp	r0, #0
  14:	d112      	bne.n	3c <memcmp+0x3c>
  16:	e004      	b.n	22 <memcmp+0x22>
  18:	3304      	adds	r3, #4
  1a:	3204      	adds	r2, #4
  1c:	3c04      	subs	r4, #4
  1e:	2c03      	cmp	r4, #3
  20:	d90c      	bls.n	3c <memcmp+0x3c>
  22:	6819      	ldr	r1, [r3, #0]
  24:	6810      	ldr	r0, [r2, #0]
  26:	4281      	cmp	r1, r0
  28:	d0f6      	beq.n	18 <memcmp+0x18>
  2a:	e007      	b.n	3c <memcmp+0x3c>
  2c:	7818      	ldrb	r0, [r3, #0]
  2e:	7811      	ldrb	r1, [r2, #0]
  30:	4288      	cmp	r0, r1
  32:	d001      	beq.n	38 <memcmp+0x38>
  34:	1a40      	subs	r0, r0, r1
  36:	e006      	b.n	46 <memcmp+0x46>
  38:	3301      	adds	r3, #1
  3a:	3201      	adds	r2, #1
  3c:	1c20      	adds	r0, r4, #0
  3e:	3c01      	subs	r4, #1
  40:	2800      	cmp	r0, #0
  42:	d1f3      	bne.n	2c <memcmp+0x2c>
  44:	2000      	movs	r0, #0
  46:	bd10      	pop	{r4, pc}

memset.o:     file format elf32-littlearm


Disassembly of section .text:

00000000 <memset>:
   0:	b530      	push	{r4, r5, lr}
   2:	1c05      	adds	r5, r0, #0
   4:	1c0c      	adds	r4, r1, #0
   6:	1c2b      	adds	r3, r5, #0
   8:	2a03      	cmp	r2, #3
   a:	d91c      	bls.n	46 <memset+0x46>
   c:	2003      	movs	r0, #3
   e:	4028      	ands	r0, r5
  10:	2800      	cmp	r0, #0
  12:	d118      	bne.n	46 <memset+0x46>
  14:	1c29      	adds	r1, r5, #0
  16:	20ff      	movs	r0, #255	@ 0xff
  18:	4004      	ands	r4, r0
  1a:	0223      	lsls	r3, r4, #8
  1c:	4323      	orrs	r3, r4
  1e:	0418      	lsls	r0, r3, #16
  20:	4303      	orrs	r3, r0
  22:	2a0f      	cmp	r2, #15
  24:	d909      	bls.n	3a <memset+0x3a>
  26:	c108      	stmia	r1!, {r3}
  28:	c108      	stmia	r1!, {r3}
  2a:	c108      	stmia	r1!, {r3}
  2c:	c108      	stmia	r1!, {r3}
  2e:	3a10      	subs	r2, #16
  30:	2a0f      	cmp	r2, #15
  32:	d8f8      	bhi.n	26 <memset+0x26>
  34:	e001      	b.n	3a <memset+0x3a>
  36:	c108      	stmia	r1!, {r3}
  38:	3a04      	subs	r2, #4
  3a:	2a03      	cmp	r2, #3
  3c:	d8fb      	bhi.n	36 <memset+0x36>
  3e:	1c0b      	adds	r3, r1, #0
  40:	e001      	b.n	46 <memset+0x46>
  42:	701c      	strb	r4, [r3, #0]
  44:	3301      	adds	r3, #1
  46:	1c10      	adds	r0, r2, #0
  48:	3a01      	subs	r2, #1
  4a:	2800      	cmp	r0, #0
  4c:	d1f9      	bne.n	42 <memset+0x42>
  4e:	1c28      	adds	r0, r5, #0
  50:	bd30      	pop	{r4, r5, pc}
	...

strcoll.o:     file format elf32-littlearm


Disassembly of section .text:

00000000 <strcoll>:
   0:	b500      	push	{lr}
   2:	f7ff fffe 	bl	0 <strcmp>
   6:	bd00      	pop	{pc}

strspn.o:     file format elf32-littlearm


Disassembly of section .text:

00000000 <strspn>:
   0:	b530      	push	{r4, r5, lr}
   2:	1c04      	adds	r4, r0, #0
   4:	1c25      	adds	r5, r4, #0
   6:	e010      	b.n	2a <strspn+0x2a>
   8:	1c0a      	adds	r2, r1, #0
   a:	7810      	ldrb	r0, [r2, #0]
   c:	2800      	cmp	r0, #0
   e:	d00f      	beq.n	30 <strspn+0x30>
  10:	4283      	cmp	r3, r0
  12:	d006      	beq.n	22 <strspn+0x22>
  14:	3201      	adds	r2, #1
  16:	7810      	ldrb	r0, [r2, #0]
  18:	2800      	cmp	r0, #0
  1a:	d009      	beq.n	30 <strspn+0x30>
  1c:	7823      	ldrb	r3, [r4, #0]
  1e:	4283      	cmp	r3, r0
  20:	d1f8      	bne.n	14 <strspn+0x14>
  22:	7810      	ldrb	r0, [r2, #0]
  24:	2800      	cmp	r0, #0
  26:	d003      	beq.n	30 <strspn+0x30>
  28:	3401      	adds	r4, #1
  2a:	7823      	ldrb	r3, [r4, #0]
  2c:	2b00      	cmp	r3, #0
  2e:	d1eb      	bne.n	8 <strspn+0x8>
  30:	1b60      	subs	r0, r4, r5
  32:	bd30      	pop	{r4, r5, pc}

strerror.o:     file format elf32-littlearm


Disassembly of section .text:

00000000 <strerror>:
   0:	b500      	push	{lr}
   2:	1c02      	adds	r2, r0, #0
   4:	1e50      	subs	r0, r2, #1
   6:	2870      	cmp	r0, #112	@ 0x70
   8:	d900      	bls.n	c <strerror+0xc>
   a:	e201      	b.n	410 <strerror+0x410>
   c:	0080      	lsls	r0, r0, #2
   e:	4902      	ldr	r1, [pc, #8]	@ (18 <strerror+0x18>)
  10:	1840      	adds	r0, r0, r1
  12:	6800      	ldr	r0, [r0, #0]
  14:	4687      	mov	pc, r0
  16:	0000      	.short	0x0000
  18:	0000001c 	.word	0x0000001c
  1c:	000001e0 	.word	0x000001e0
  20:	000001e8 	.word	0x000001e8
  24:	000001f0 	.word	0x000001f0
  28:	000001f8 	.word	0x000001f8
  2c:	00000200 	.word	0x00000200
  30:	00000208 	.word	0x00000208
  34:	00000210 	.word	0x00000210
  38:	00000218 	.word	0x00000218
  3c:	00000220 	.word	0x00000220
  40:	00000228 	.word	0x00000228
  44:	00000230 	.word	0x00000230
  48:	00000238 	.word	0x00000238
  4c:	00000240 	.word	0x00000240
  50:	00000248 	.word	0x00000248
  54:	00000250 	.word	0x00000250
  58:	00000258 	.word	0x00000258
  5c:	00000260 	.word	0x00000260
  60:	00000268 	.word	0x00000268
  64:	00000270 	.word	0x00000270
  68:	00000278 	.word	0x00000278
  6c:	00000280 	.word	0x00000280
  70:	00000288 	.word	0x00000288
  74:	00000290 	.word	0x00000290
  78:	00000298 	.word	0x00000298
  7c:	000002a0 	.word	0x000002a0
  80:	000002a8 	.word	0x000002a8
  84:	000002b0 	.word	0x000002b0
  88:	000002b8 	.word	0x000002b8
  8c:	000002c0 	.word	0x000002c0
  90:	000002c8 	.word	0x000002c8
  94:	000002d0 	.word	0x000002d0
  98:	000002d8 	.word	0x000002d8
  9c:	000002e0 	.word	0x000002e0
  a0:	000002e8 	.word	0x000002e8
  a4:	000002f0 	.word	0x000002f0
  a8:	000002f8 	.word	0x000002f8
  ac:	00000410 	.word	0x00000410
  b0:	00000410 	.word	0x00000410
  b4:	00000410 	.word	0x00000410
  b8:	00000410 	.word	0x00000410
  bc:	00000410 	.word	0x00000410
  c0:	00000410 	.word	0x00000410
  c4:	00000410 	.word	0x00000410
  c8:	00000410 	.word	0x00000410
  cc:	00000300 	.word	0x00000300
  d0:	00000308 	.word	0x00000308
  d4:	00000410 	.word	0x00000410
  d8:	00000410 	.word	0x00000410
  dc:	00000410 	.word	0x00000410
  e0:	00000410 	.word	0x00000410
  e4:	00000410 	.word	0x00000410
  e8:	00000410 	.word	0x00000410
  ec:	00000410 	.word	0x00000410
  f0:	00000410 	.word	0x00000410
  f4:	00000410 	.word	0x00000410
  f8:	00000410 	.word	0x00000410
  fc:	00000410 	.word	0x00000410
 100:	00000410 	.word	0x00000410
 104:	00000410 	.word	0x00000410
 108:	00000310 	.word	0x00000310
 10c:	00000410 	.word	0x00000410
 110:	00000318 	.word	0x00000318
 114:	00000320 	.word	0x00000320
 118:	00000328 	.word	0x00000328
 11c:	00000330 	.word	0x00000330
 120:	00000338 	.word	0x00000338
 124:	00000340 	.word	0x00000340
 128:	00000348 	.word	0x00000348
 12c:	00000350 	.word	0x00000350
 130:	00000358 	.word	0x00000358
 134:	00000360 	.word	0x00000360
 138:	00000410 	.word	0x00000410
 13c:	00000410 	.word	0x00000410
 140:	00000368 	.word	0x00000368
 144:	00000410 	.word	0x00000410
 148:	00000410 	.word	0x00000410
 14c:	00000370 	.word	0x00000370
 150:	00000410 	.word	0x00000410
 154:	00000410 	.word	0x00000410
 158:	00000410 	.word	0x00000410
 15c:	00000410 	.word	0x00000410
 160:	00000410 	.word	0x00000410
 164:	00000378 	.word	0x00000378
 168:	00000380 	.word	0x00000380
 16c:	00000388 	.word	0x00000388
 170:	00000390 	.word	0x00000390
 174:	00000398 	.word	0x00000398
 178:	000003a0 	.word	0x000003a0
 17c:	000003a8 	.word	0x000003a8
 180:	000003b0 	.word	0x000003b0
 184:	000003b8 	.word	0x000003b8
 188:	000003c0 	.word	0x000003c0
 18c:	00000410 	.word	0x00000410
 190:	00000410 	.word	0x00000410
 194:	00000410 	.word	0x00000410
 198:	00000410 	.word	0x00000410
 19c:	00000410 	.word	0x00000410
 1a0:	00000410 	.word	0x00000410
 1a4:	00000410 	.word	0x00000410
 1a8:	00000410 	.word	0x00000410
 1ac:	00000410 	.word	0x00000410
 1b0:	00000410 	.word	0x00000410
 1b4:	00000410 	.word	0x00000410
 1b8:	00000410 	.word	0x00000410
 1bc:	000003c8 	.word	0x000003c8
 1c0:	000003d0 	.word	0x000003d0
 1c4:	000003d8 	.word	0x000003d8
 1c8:	000003e0 	.word	0x000003e0
 1cc:	000003e8 	.word	0x000003e8
 1d0:	000003f0 	.word	0x000003f0
 1d4:	000003f8 	.word	0x000003f8
 1d8:	00000400 	.word	0x00000400
 1dc:	00000408 	.word	0x00000408
 1e0:	4800      	ldr	r0, [pc, #0]	@ (1e4 <strerror+0x1e4>)
 1e2:	e11b      	b.n	41c <strerror+0x41c>
 1e4:	00000000 	.word	0x00000000
 1e8:	4800      	ldr	r0, [pc, #0]	@ (1ec <strerror+0x1ec>)
 1ea:	e117      	b.n	41c <strerror+0x41c>
 1ec:	0000000c 	.word	0x0000000c
 1f0:	4800      	ldr	r0, [pc, #0]	@ (1f4 <strerror+0x1f4>)
 1f2:	e113      	b.n	41c <strerror+0x41c>
 1f4:	00000028 	.word	0x00000028
 1f8:	4800      	ldr	r0, [pc, #0]	@ (1fc <strerror+0x1fc>)
 1fa:	e10f      	b.n	41c <strerror+0x41c>
 1fc:	00000038 	.word	0x00000038
 200:	4800      	ldr	r0, [pc, #0]	@ (204 <strerror+0x204>)
 202:	e10b      	b.n	41c <strerror+0x41c>
 204:	00000050 	.word	0x00000050
 208:	4800      	ldr	r0, [pc, #0]	@ (20c <strerror+0x20c>)
 20a:	e107      	b.n	41c <strerror+0x41c>
 20c:	0000005c 	.word	0x0000005c
 210:	4800      	ldr	r0, [pc, #0]	@ (214 <strerror+0x214>)
 212:	e103      	b.n	41c <strerror+0x41c>
 214:	00000078 	.word	0x00000078
 218:	4800      	ldr	r0, [pc, #0]	@ (21c <strerror+0x21c>)
 21a:	e0ff      	b.n	41c <strerror+0x41c>
 21c:	0000008c 	.word	0x0000008c
 220:	4800      	ldr	r0, [pc, #0]	@ (224 <strerror+0x224>)
 222:	e0fb      	b.n	41c <strerror+0x41c>
 224:	000000a0 	.word	0x000000a0
 228:	4800      	ldr	r0, [pc, #0]	@ (22c <strerror+0x22c>)
 22a:	e0f7      	b.n	41c <strerror+0x41c>
 22c:	000000b0 	.word	0x000000b0
 230:	4800      	ldr	r0, [pc, #0]	@ (234 <strerror+0x234>)
 232:	e0f3      	b.n	41c <strerror+0x41c>
 234:	000000bc 	.word	0x000000bc
 238:	4800      	ldr	r0, [pc, #0]	@ (23c <strerror+0x23c>)
 23a:	e0ef      	b.n	41c <strerror+0x41c>
 23c:	000000d0 	.word	0x000000d0
 240:	4800      	ldr	r0, [pc, #0]	@ (244 <strerror+0x244>)
 242:	e0eb      	b.n	41c <strerror+0x41c>
 244:	000000e4 	.word	0x000000e4
 248:	4800      	ldr	r0, [pc, #0]	@ (24c <strerror+0x24c>)
 24a:	e0e7      	b.n	41c <strerror+0x41c>
 24c:	000000f8 	.word	0x000000f8
 250:	4800      	ldr	r0, [pc, #0]	@ (254 <strerror+0x254>)
 252:	e0e3      	b.n	41c <strerror+0x41c>
 254:	00000104 	.word	0x00000104
 258:	4800      	ldr	r0, [pc, #0]	@ (25c <strerror+0x25c>)
 25a:	e0df      	b.n	41c <strerror+0x41c>
 25c:	0000011c 	.word	0x0000011c
 260:	4800      	ldr	r0, [pc, #0]	@ (264 <strerror+0x264>)
 262:	e0db      	b.n	41c <strerror+0x41c>
 264:	00000134 	.word	0x00000134
 268:	4800      	ldr	r0, [pc, #0]	@ (26c <strerror+0x26c>)
 26a:	e0d7      	b.n	41c <strerror+0x41c>
 26c:	00000140 	.word	0x00000140
 270:	4800      	ldr	r0, [pc, #0]	@ (274 <strerror+0x274>)
 272:	e0d3      	b.n	41c <strerror+0x41c>
 274:	00000154 	.word	0x00000154
 278:	4800      	ldr	r0, [pc, #0]	@ (27c <strerror+0x27c>)
 27a:	e0cf      	b.n	41c <strerror+0x41c>
 27c:	00000164 	.word	0x00000164
 280:	4800      	ldr	r0, [pc, #0]	@ (284 <strerror+0x284>)
 282:	e0cb      	b.n	41c <strerror+0x41c>
 284:	00000174 	.word	0x00000174
 288:	4800      	ldr	r0, [pc, #0]	@ (28c <strerror+0x28c>)
 28a:	e0c7      	b.n	41c <strerror+0x41c>
 28c:	00000184 	.word	0x00000184
 290:	4800      	ldr	r0, [pc, #0]	@ (294 <strerror+0x294>)
 292:	e0c3      	b.n	41c <strerror+0x41c>
 294:	00000198 	.word	0x00000198
 298:	4800      	ldr	r0, [pc, #0]	@ (29c <strerror+0x29c>)
 29a:	e0bf      	b.n	41c <strerror+0x41c>
 29c:	000001b8 	.word	0x000001b8
 2a0:	4800      	ldr	r0, [pc, #0]	@ (2a4 <strerror+0x2a4>)
 2a2:	e0bb      	b.n	41c <strerror+0x41c>
 2a4:	000001cc 	.word	0x000001cc
 2a8:	4800      	ldr	r0, [pc, #0]	@ (2ac <strerror+0x2ac>)
 2aa:	e0b7      	b.n	41c <strerror+0x41c>
 2ac:	000001e4 	.word	0x000001e4
 2b0:	4800      	ldr	r0, [pc, #0]	@ (2b4 <strerror+0x2b4>)
 2b2:	e0b3      	b.n	41c <strerror+0x41c>
 2b4:	000001f4 	.word	0x000001f4
 2b8:	4800      	ldr	r0, [pc, #0]	@ (2bc <strerror+0x2bc>)
 2ba:	e0af      	b.n	41c <strerror+0x41c>
 2bc:	00000204 	.word	0x00000204
 2c0:	4800      	ldr	r0, [pc, #0]	@ (2c4 <strerror+0x2c4>)
 2c2:	e0ab      	b.n	41c <strerror+0x41c>
 2c4:	0000021c 	.word	0x0000021c
 2c8:	4800      	ldr	r0, [pc, #0]	@ (2cc <strerror+0x2cc>)
 2ca:	e0a7      	b.n	41c <strerror+0x41c>
 2cc:	0000022c 	.word	0x0000022c
 2d0:	4800      	ldr	r0, [pc, #0]	@ (2d4 <strerror+0x2d4>)
 2d2:	e0a3      	b.n	41c <strerror+0x41c>
 2d4:	00000244 	.word	0x00000244
 2d8:	4800      	ldr	r0, [pc, #0]	@ (2dc <strerror+0x2dc>)
 2da:	e09f      	b.n	41c <strerror+0x41c>
 2dc:	00000254 	.word	0x00000254
 2e0:	4800      	ldr	r0, [pc, #0]	@ (2e4 <strerror+0x2e4>)
 2e2:	e09b      	b.n	41c <strerror+0x41c>
 2e4:	00000260 	.word	0x00000260
 2e8:	4800      	ldr	r0, [pc, #0]	@ (2ec <strerror+0x2ec>)
 2ea:	e097      	b.n	41c <strerror+0x41c>
 2ec:	00000270 	.word	0x00000270
 2f0:	4800      	ldr	r0, [pc, #0]	@ (2f4 <strerror+0x2f4>)
 2f2:	e093      	b.n	41c <strerror+0x41c>
 2f4:	00000284 	.word	0x00000284
 2f8:	4800      	ldr	r0, [pc, #0]	@ (2fc <strerror+0x2fc>)
 2fa:	e08f      	b.n	41c <strerror+0x41c>
 2fc:	000002a0 	.word	0x000002a0
 300:	4800      	ldr	r0, [pc, #0]	@ (304 <strerror+0x304>)
 302:	e08b      	b.n	41c <strerror+0x41c>
 304:	000002b4 	.word	0x000002b4
 308:	4800      	ldr	r0, [pc, #0]	@ (30c <strerror+0x30c>)
 30a:	e087      	b.n	41c <strerror+0x41c>
 30c:	000002c0 	.word	0x000002c0
 310:	4800      	ldr	r0, [pc, #0]	@ (314 <strerror+0x314>)
 312:	e083      	b.n	41c <strerror+0x41c>
 314:	000002c8 	.word	0x000002c8
 318:	4800      	ldr	r0, [pc, #0]	@ (31c <strerror+0x31c>)
 31a:	e07f      	b.n	41c <strerror+0x41c>
 31c:	000002d8 	.word	0x000002d8
 320:	4800      	ldr	r0, [pc, #0]	@ (324 <strerror+0x324>)
 322:	e07b      	b.n	41c <strerror+0x41c>
 324:	000002f0 	.word	0x000002f0
 328:	4800      	ldr	r0, [pc, #0]	@ (32c <strerror+0x32c>)
 32a:	e077      	b.n	41c <strerror+0x41c>
 32c:	00000304 	.word	0x00000304
 330:	4800      	ldr	r0, [pc, #0]	@ (334 <strerror+0x334>)
 332:	e073      	b.n	41c <strerror+0x41c>
 334:	00000324 	.word	0x00000324
 338:	4800      	ldr	r0, [pc, #0]	@ (33c <strerror+0x33c>)
 33a:	e06f      	b.n	41c <strerror+0x41c>
 33c:	00000330 	.word	0x00000330
 340:	4800      	ldr	r0, [pc, #0]	@ (344 <strerror+0x344>)
 342:	e06b      	b.n	41c <strerror+0x41c>
 344:	00000344 	.word	0x00000344
 348:	4800      	ldr	r0, [pc, #0]	@ (34c <strerror+0x34c>)
 34a:	e067      	b.n	41c <strerror+0x41c>
 34c:	0000035c 	.word	0x0000035c
 350:	4800      	ldr	r0, [pc, #0]	@ (354 <strerror+0x354>)
 352:	e063      	b.n	41c <strerror+0x41c>
 354:	0000036c 	.word	0x0000036c
 358:	4800      	ldr	r0, [pc, #0]	@ (35c <strerror+0x35c>)
 35a:	e05f      	b.n	41c <strerror+0x41c>
 35c:	0000037c 	.word	0x0000037c
 360:	4800      	ldr	r0, [pc, #0]	@ (364 <strerror+0x364>)
 362:	e05b      	b.n	41c <strerror+0x41c>
 364:	00000390 	.word	0x00000390
 368:	4800      	ldr	r0, [pc, #0]	@ (36c <strerror+0x36c>)
 36a:	e057      	b.n	41c <strerror+0x41c>
 36c:	000003a0 	.word	0x000003a0
 370:	4800      	ldr	r0, [pc, #0]	@ (374 <strerror+0x374>)
 372:	e053      	b.n	41c <strerror+0x41c>
 374:	000003b4 	.word	0x000003b4
 378:	4800      	ldr	r0, [pc, #0]	@ (37c <strerror+0x37c>)
 37a:	e04f      	b.n	41c <strerror+0x41c>
 37c:	000003c0 	.word	0x000003c0
 380:	4800      	ldr	r0, [pc, #0]	@ (384 <strerror+0x384>)
 382:	e04b      	b.n	41c <strerror+0x41c>
 384:	000003e8 	.word	0x000003e8
 388:	4800      	ldr	r0, [pc, #0]	@ (38c <strerror+0x38c>)
 38a:	e047      	b.n	41c <strerror+0x41c>
 38c:	00000410 	.word	0x00000410
 390:	4800      	ldr	r0, [pc, #0]	@ (394 <strerror+0x394>)
 392:	e043      	b.n	41c <strerror+0x41c>
 394:	00000430 	.word	0x00000430
 398:	4800      	ldr	r0, [pc, #0]	@ (39c <strerror+0x39c>)
 39a:	e03f      	b.n	41c <strerror+0x41c>
 39c:	00000470 	.word	0x00000470
 3a0:	4800      	ldr	r0, [pc, #0]	@ (3a4 <strerror+0x3a4>)
 3a2:	e03b      	b.n	41c <strerror+0x41c>
 3a4:	00000498 	.word	0x00000498
 3a8:	4800      	ldr	r0, [pc, #0]	@ (3ac <strerror+0x3ac>)
 3aa:	e037      	b.n	41c <strerror+0x41c>
 3ac:	000004b4 	.word	0x000004b4
 3b0:	4800      	ldr	r0, [pc, #0]	@ (3b4 <strerror+0x3b4>)
 3b2:	e033      	b.n	41c <strerror+0x41c>
 3b4:	000004c4 	.word	0x000004c4
 3b8:	4800      	ldr	r0, [pc, #0]	@ (3bc <strerror+0x3bc>)
 3ba:	e02f      	b.n	41c <strerror+0x41c>
 3bc:	000004d8 	.word	0x000004d8
 3c0:	4800      	ldr	r0, [pc, #0]	@ (3c4 <strerror+0x3c4>)
 3c2:	e02b      	b.n	41c <strerror+0x41c>
 3c4:	000004f4 	.word	0x000004f4
 3c8:	4800      	ldr	r0, [pc, #0]	@ (3cc <strerror+0x3cc>)
 3ca:	e027      	b.n	41c <strerror+0x41c>
 3cc:	0000050c 	.word	0x0000050c
 3d0:	4800      	ldr	r0, [pc, #0]	@ (3d4 <strerror+0x3d4>)
 3d2:	e023      	b.n	41c <strerror+0x41c>
 3d4:	00000528 	.word	0x00000528
 3d8:	4800      	ldr	r0, [pc, #0]	@ (3dc <strerror+0x3dc>)
 3da:	e01f      	b.n	41c <strerror+0x41c>
 3dc:	00000558 	.word	0x00000558
 3e0:	4800      	ldr	r0, [pc, #0]	@ (3e4 <strerror+0x3e4>)
 3e2:	e01b      	b.n	41c <strerror+0x41c>
 3e4:	00000578 	.word	0x00000578
 3e8:	4800      	ldr	r0, [pc, #0]	@ (3ec <strerror+0x3ec>)
 3ea:	e017      	b.n	41c <strerror+0x41c>
 3ec:	00000598 	.word	0x00000598
 3f0:	4800      	ldr	r0, [pc, #0]	@ (3f4 <strerror+0x3f4>)
 3f2:	e013      	b.n	41c <strerror+0x41c>
 3f4:	000005b0 	.word	0x000005b0
 3f8:	4800      	ldr	r0, [pc, #0]	@ (3fc <strerror+0x3fc>)
 3fa:	e00f      	b.n	41c <strerror+0x41c>
 3fc:	000005d4 	.word	0x000005d4
 400:	4800      	ldr	r0, [pc, #0]	@ (404 <strerror+0x404>)
 402:	e00b      	b.n	41c <strerror+0x41c>
 404:	000005e8 	.word	0x000005e8
 408:	4800      	ldr	r0, [pc, #0]	@ (40c <strerror+0x40c>)
 40a:	e007      	b.n	41c <strerror+0x41c>
 40c:	00000600 	.word	0x00000600
 410:	1c10      	adds	r0, r2, #0
 412:	f7ff fffe 	bl	0 <_user_strerror>
 416:	2800      	cmp	r0, #0
 418:	d100      	bne.n	41c <strerror+0x41c>
 41a:	4801      	ldr	r0, [pc, #4]	@ (420 <strerror+0x420>)
 41c:	bd00      	pop	{pc}
 41e:	0000      	.short	0x0000
 420:	00000624 	.word	0x00000624

strtok_r.o:     file format elf32-littlearm


Disassembly of section .text:

00000000 <strtok_r>:
   0:	b5f0      	push	{r4, r5, r6, r7, lr}
   2:	1c04      	adds	r4, r0, #0
   4:	1c0f      	adds	r7, r1, #0
   6:	1c16      	adds	r6, r2, #0
   8:	2c00      	cmp	r4, #0
   a:	d104      	bne.n	16 <strtok_r+0x16>
   c:	6834      	ldr	r4, [r6, #0]
   e:	2c00      	cmp	r4, #0
  10:	d101      	bne.n	16 <strtok_r+0x16>
  12:	2000      	movs	r0, #0
  14:	e023      	b.n	5e <strtok_r+0x5e>
  16:	7821      	ldrb	r1, [r4, #0]
  18:	3401      	adds	r4, #1
  1a:	1c3b      	adds	r3, r7, #0
  1c:	e001      	b.n	22 <strtok_r+0x22>
  1e:	4281      	cmp	r1, r0
  20:	d0f9      	beq.n	16 <strtok_r+0x16>
  22:	7818      	ldrb	r0, [r3, #0]
  24:	3301      	adds	r3, #1
  26:	2800      	cmp	r0, #0
  28:	d1f9      	bne.n	1e <strtok_r+0x1e>
  2a:	2900      	cmp	r1, #0
  2c:	d102      	bne.n	34 <strtok_r+0x34>
  2e:	6031      	str	r1, [r6, #0]
  30:	2000      	movs	r0, #0
  32:	e014      	b.n	5e <strtok_r+0x5e>
  34:	1e65      	subs	r5, r4, #1
  36:	7821      	ldrb	r1, [r4, #0]
  38:	3401      	adds	r4, #1
  3a:	1c3b      	adds	r3, r7, #0
  3c:	2200      	movs	r2, #0
  3e:	7818      	ldrb	r0, [r3, #0]
  40:	3301      	adds	r3, #1
  42:	4288      	cmp	r0, r1
  44:	d108      	bne.n	58 <strtok_r+0x58>
  46:	2800      	cmp	r0, #0
  48:	d101      	bne.n	4e <strtok_r+0x4e>
  4a:	2400      	movs	r4, #0
  4c:	e001      	b.n	52 <strtok_r+0x52>
  4e:	1e60      	subs	r0, r4, #1
  50:	7002      	strb	r2, [r0, #0]
  52:	6034      	str	r4, [r6, #0]
  54:	1c28      	adds	r0, r5, #0
  56:	e002      	b.n	5e <strtok_r+0x5e>
  58:	2800      	cmp	r0, #0
  5a:	d1f0      	bne.n	3e <strtok_r+0x3e>
  5c:	e7eb      	b.n	36 <strtok_r+0x36>
  5e:	bdf0      	pop	{r4, r5, r6, r7, pc}

strlen.o:     file format elf32-littlearm


Disassembly of section .text:

00000000 <strlen>:
   0:	b530      	push	{r4, r5, lr}
   2:	1c01      	adds	r1, r0, #0
   4:	1c0d      	adds	r5, r1, #0
   6:	2003      	movs	r0, #3
   8:	4008      	ands	r0, r1
   a:	2800      	cmp	r0, #0
   c:	d114      	bne.n	38 <strlen+0x38>
   e:	1c0a      	adds	r2, r1, #0
  10:	6811      	ldr	r1, [r2, #0]
  12:	4c02      	ldr	r4, [pc, #8]	@ (1c <strlen+0x1c>)
  14:	1908      	adds	r0, r1, r4
  16:	4388      	bics	r0, r1
  18:	4b01      	ldr	r3, [pc, #4]	@ (20 <strlen+0x20>)
  1a:	e007      	b.n	2c <strlen+0x2c>
  1c:	fefefeff 	.word	0xfefefeff
  20:	80808080 	.word	0x80808080
  24:	3204      	adds	r2, #4
  26:	6811      	ldr	r1, [r2, #0]
  28:	1908      	adds	r0, r1, r4
  2a:	4388      	bics	r0, r1
  2c:	4018      	ands	r0, r3
  2e:	2800      	cmp	r0, #0
  30:	d0f8      	beq.n	24 <strlen+0x24>
  32:	1c11      	adds	r1, r2, #0
  34:	e000      	b.n	38 <strlen+0x38>
  36:	3101      	adds	r1, #1
  38:	7808      	ldrb	r0, [r1, #0]
  3a:	2800      	cmp	r0, #0
  3c:	d1fb      	bne.n	36 <strlen+0x36>
  3e:	1b48      	subs	r0, r1, r5
  40:	bd30      	pop	{r4, r5, pc}
	...

strlwr.o:     file format elf32-littlearm


Disassembly of section .text:

00000000 <strlwr>:
   0:	b570      	push	{r4, r5, r6, lr}
   2:	1c04      	adds	r4, r0, #0
   4:	1c23      	adds	r3, r4, #0
   6:	7820      	ldrb	r0, [r4, #0]
   8:	2800      	cmp	r0, #0
   a:	d00f      	beq.n	2c <strlwr+0x2c>
   c:	4d08      	ldr	r5, [pc, #32]	@ (30 <strlwr+0x30>)
   e:	2601      	movs	r6, #1
  10:	781a      	ldrb	r2, [r3, #0]
  12:	1951      	adds	r1, r2, r5
  14:	1c30      	adds	r0, r6, #0
  16:	7809      	ldrb	r1, [r1, #0]
  18:	4008      	ands	r0, r1
  1a:	2800      	cmp	r0, #0
  1c:	d002      	beq.n	24 <strlwr+0x24>
  1e:	1c10      	adds	r0, r2, #0
  20:	3020      	adds	r0, #32
  22:	7018      	strb	r0, [r3, #0]
  24:	3301      	adds	r3, #1
  26:	7818      	ldrb	r0, [r3, #0]
  28:	2800      	cmp	r0, #0
  2a:	d1f1      	bne.n	10 <strlwr+0x10>
  2c:	1c20      	adds	r0, r4, #0
  2e:	bd70      	pop	{r4, r5, r6, pc}
  30:	00000001 	.word	0x00000001

bzero.o:     file format elf32-littlearm


Disassembly of section .text:

00000000 <bzero>:
   0:	1c02      	adds	r2, r0, #0
   2:	1c08      	adds	r0, r1, #0
   4:	3901      	subs	r1, #1
   6:	2800      	cmp	r0, #0
   8:	d006      	beq.n	18 <bzero+0x18>
   a:	2300      	movs	r3, #0
   c:	7013      	strb	r3, [r2, #0]
   e:	3201      	adds	r2, #1
  10:	1c08      	adds	r0, r1, #0
  12:	3901      	subs	r1, #1
  14:	2800      	cmp	r0, #0
  16:	d1f9      	bne.n	c <bzero+0xc>
  18:	4770      	bx	lr
	...

strncmp.o:     file format elf32-littlearm


Disassembly of section .text:

00000000 <strncmp>:
   0:	b570      	push	{r4, r5, r6, lr}
   2:	1c06      	adds	r6, r0, #0
   4:	1c0c      	adds	r4, r1, #0
   6:	2a00      	cmp	r2, #0
   8:	d030      	beq.n	6c <strncmp+0x6c>
   a:	1c30      	adds	r0, r6, #0
   c:	4320      	orrs	r0, r4
   e:	2103      	movs	r1, #3
  10:	4008      	ands	r0, r1
  12:	2800      	cmp	r0, #0
  14:	d11c      	bne.n	50 <strncmp+0x50>
  16:	1c33      	adds	r3, r6, #0
  18:	1c25      	adds	r5, r4, #0
  1a:	2a03      	cmp	r2, #3
  1c:	d916      	bls.n	4c <strncmp+0x4c>
  1e:	6831      	ldr	r1, [r6, #0]
  20:	6820      	ldr	r0, [r4, #0]
  22:	4281      	cmp	r1, r0
  24:	d112      	bne.n	4c <strncmp+0x4c>
  26:	4e0d      	ldr	r6, [pc, #52]	@ (5c <strncmp+0x5c>)
  28:	4c0d      	ldr	r4, [pc, #52]	@ (60 <strncmp+0x60>)
  2a:	3a04      	subs	r2, #4
  2c:	2a00      	cmp	r2, #0
  2e:	d01d      	beq.n	6c <strncmp+0x6c>
  30:	6819      	ldr	r1, [r3, #0]
  32:	1988      	adds	r0, r1, r6
  34:	4388      	bics	r0, r1
  36:	4020      	ands	r0, r4
  38:	2800      	cmp	r0, #0
  3a:	d117      	bne.n	6c <strncmp+0x6c>
  3c:	3304      	adds	r3, #4
  3e:	3504      	adds	r5, #4
  40:	2a03      	cmp	r2, #3
  42:	d903      	bls.n	4c <strncmp+0x4c>
  44:	6819      	ldr	r1, [r3, #0]
  46:	6828      	ldr	r0, [r5, #0]
  48:	4281      	cmp	r1, r0
  4a:	d0ee      	beq.n	2a <strncmp+0x2a>
  4c:	1c1e      	adds	r6, r3, #0
  4e:	1c2c      	adds	r4, r5, #0
  50:	1c10      	adds	r0, r2, #0
  52:	3a01      	subs	r2, #1
  54:	2800      	cmp	r0, #0
  56:	d012      	beq.n	7e <strncmp+0x7e>
  58:	e00d      	b.n	76 <strncmp+0x76>
  5a:	0000      	.short	0x0000
  5c:	fefefeff 	.word	0xfefefeff
  60:	80808080 	.word	0x80808080
  64:	2a00      	cmp	r2, #0
  66:	d001      	beq.n	6c <strncmp+0x6c>
  68:	2800      	cmp	r0, #0
  6a:	d101      	bne.n	70 <strncmp+0x70>
  6c:	2000      	movs	r0, #0
  6e:	e009      	b.n	84 <strncmp+0x84>
  70:	3601      	adds	r6, #1
  72:	3401      	adds	r4, #1
  74:	3a01      	subs	r2, #1
  76:	7830      	ldrb	r0, [r6, #0]
  78:	7821      	ldrb	r1, [r4, #0]
  7a:	4288      	cmp	r0, r1
  7c:	d0f2      	beq.n	64 <strncmp+0x64>
  7e:	7836      	ldrb	r6, [r6, #0]
  80:	7824      	ldrb	r4, [r4, #0]
  82:	1b30      	subs	r0, r6, r4
  84:	bd70      	pop	{r4, r5, r6, pc}
	...

bcmp.o:     file format elf32-littlearm


Disassembly of section .text:

00000000 <bcmp>:
   0:	b500      	push	{lr}
   2:	f7ff fffe 	bl	0 <memcmp>
   6:	bd00      	pop	{pc}

strncpy.o:     file format elf32-littlearm


Disassembly of section .text:

00000000 <strncpy>:
   0:	b5f0      	push	{r4, r5, r6, r7, lr}
   2:	1c07      	adds	r7, r0, #0
   4:	1c3c      	adds	r4, r7, #0
   6:	1c0b      	adds	r3, r1, #0
   8:	1c18      	adds	r0, r3, #0
   a:	4338      	orrs	r0, r7
   c:	2103      	movs	r1, #3
   e:	4008      	ands	r0, r1
  10:	2800      	cmp	r0, #0
  12:	d116      	bne.n	42 <strncpy+0x42>
  14:	2a03      	cmp	r2, #3
  16:	d914      	bls.n	42 <strncpy+0x42>
  18:	6819      	ldr	r1, [r3, #0]
  1a:	4e02      	ldr	r6, [pc, #8]	@ (24 <strncpy+0x24>)
  1c:	1988      	adds	r0, r1, r6
  1e:	4388      	bics	r0, r1
  20:	4d01      	ldr	r5, [pc, #4]	@ (28 <strncpy+0x28>)
  22:	e00b      	b.n	3c <strncpy+0x3c>
  24:	fefefeff 	.word	0xfefefeff
  28:	80808080 	.word	0x80808080
  2c:	3a04      	subs	r2, #4
  2e:	cb01      	ldmia	r3!, {r0}
  30:	c401      	stmia	r4!, {r0}
  32:	2a03      	cmp	r2, #3
  34:	d905      	bls.n	42 <strncpy+0x42>
  36:	6819      	ldr	r1, [r3, #0]
  38:	1988      	adds	r0, r1, r6
  3a:	4388      	bics	r0, r1
  3c:	4028      	ands	r0, r5
  3e:	2800      	cmp	r0, #0
  40:	d0f4      	beq.n	2c <strncpy+0x2c>
  42:	2a00      	cmp	r2, #0
  44:	d007      	beq.n	56 <strncpy+0x56>
  46:	3a01      	subs	r2, #1
  48:	7818      	ldrb	r0, [r3, #0]
  4a:	7020      	strb	r0, [r4, #0]
  4c:	0600      	lsls	r0, r0, #24
  4e:	3301      	adds	r3, #1
  50:	3401      	adds	r4, #1
  52:	2800      	cmp	r0, #0
  54:	d1f5      	bne.n	42 <strncpy+0x42>
  56:	1c10      	adds	r0, r2, #0
  58:	3a01      	subs	r2, #1
  5a:	2800      	cmp	r0, #0
  5c:	d006      	beq.n	6c <strncpy+0x6c>
  5e:	2100      	movs	r1, #0
  60:	7021      	strb	r1, [r4, #0]
  62:	3401      	adds	r4, #1
  64:	1c10      	adds	r0, r2, #0
  66:	3a01      	subs	r2, #1
  68:	2800      	cmp	r0, #0
  6a:	d1f9      	bne.n	60 <strncpy+0x60>
  6c:	1c38      	adds	r0, r7, #0
  6e:	bdf0      	pop	{r4, r5, r6, r7, pc}

rindex.o:     file format elf32-littlearm


Disassembly of section .text:

00000000 <rindex>:
   0:	b500      	push	{lr}
   2:	f7ff fffe 	bl	0 <strrchr>
   6:	bd00      	pop	{pc}

strpbrk.o:     file format elf32-littlearm


Disassembly of section .text:

00000000 <strpbrk>:
   0:	b510      	push	{r4, lr}
   2:	1c04      	adds	r4, r0, #0
   4:	7820      	ldrb	r0, [r4, #0]
   6:	2800      	cmp	r0, #0
   8:	d101      	bne.n	e <strpbrk+0xe>
   a:	2000      	movs	r0, #0
   c:	e019      	b.n	42 <strpbrk+0x42>
   e:	1c0a      	adds	r2, r1, #0
  10:	7813      	ldrb	r3, [r2, #0]
  12:	2b00      	cmp	r3, #0
  14:	d00c      	beq.n	30 <strpbrk+0x30>
  16:	7820      	ldrb	r0, [r4, #0]
  18:	4298      	cmp	r0, r3
  1a:	d006      	beq.n	2a <strpbrk+0x2a>
  1c:	1c03      	adds	r3, r0, #0
  1e:	3201      	adds	r2, #1
  20:	7810      	ldrb	r0, [r2, #0]
  22:	2800      	cmp	r0, #0
  24:	d004      	beq.n	30 <strpbrk+0x30>
  26:	4283      	cmp	r3, r0
  28:	d1f9      	bne.n	1e <strpbrk+0x1e>
  2a:	7810      	ldrb	r0, [r2, #0]
  2c:	2800      	cmp	r0, #0
  2e:	d107      	bne.n	40 <strpbrk+0x40>
  30:	3401      	adds	r4, #1
  32:	7820      	ldrb	r0, [r4, #0]
  34:	2800      	cmp	r0, #0
  36:	d1ea      	bne.n	e <strpbrk+0xe>
  38:	7810      	ldrb	r0, [r2, #0]
  3a:	2800      	cmp	r0, #0
  3c:	d100      	bne.n	40 <strpbrk+0x40>
  3e:	2400      	movs	r4, #0
  40:	1c20      	adds	r0, r4, #0
  42:	bd10      	pop	{r4, pc}

strncat.o:     file format elf32-littlearm


Disassembly of section .text:

00000000 <strncat>:
   0:	b5f0      	push	{r4, r5, r6, r7, lr}
   2:	1c03      	adds	r3, r0, #0
   4:	1c0c      	adds	r4, r1, #0
   6:	1c1f      	adds	r7, r3, #0
   8:	2003      	movs	r0, #3
   a:	4038      	ands	r0, r7
   c:	2800      	cmp	r0, #0
   e:	d110      	bne.n	32 <strncat+0x32>
  10:	6839      	ldr	r1, [r7, #0]
  12:	4e02      	ldr	r6, [pc, #8]	@ (1c <strncat+0x1c>)
  14:	1988      	adds	r0, r1, r6
  16:	4388      	bics	r0, r1
  18:	4d01      	ldr	r5, [pc, #4]	@ (20 <strncat+0x20>)
  1a:	e007      	b.n	2c <strncat+0x2c>
  1c:	fefefeff 	.word	0xfefefeff
  20:	80808080 	.word	0x80808080
  24:	3304      	adds	r3, #4
  26:	6819      	ldr	r1, [r3, #0]
  28:	1988      	adds	r0, r1, r6
  2a:	4388      	bics	r0, r1
  2c:	4028      	ands	r0, r5
  2e:	2800      	cmp	r0, #0
  30:	d0f8      	beq.n	24 <strncat+0x24>
  32:	7818      	ldrb	r0, [r3, #0]
  34:	1e51      	subs	r1, r2, #1
  36:	2800      	cmp	r0, #0
  38:	d003      	beq.n	42 <strncat+0x42>
  3a:	3301      	adds	r3, #1
  3c:	7818      	ldrb	r0, [r3, #0]
  3e:	2800      	cmp	r0, #0
  40:	d1fb      	bne.n	3a <strncat+0x3a>
  42:	1c10      	adds	r0, r2, #0
  44:	1c0a      	adds	r2, r1, #0
  46:	e004      	b.n	52 <strncat+0x52>
  48:	2a00      	cmp	r2, #0
  4a:	d100      	bne.n	4e <strncat+0x4e>
  4c:	701a      	strb	r2, [r3, #0]
  4e:	1c10      	adds	r0, r2, #0
  50:	3a01      	subs	r2, #1
  52:	2800      	cmp	r0, #0
  54:	d006      	beq.n	64 <strncat+0x64>
  56:	7820      	ldrb	r0, [r4, #0]
  58:	7018      	strb	r0, [r3, #0]
  5a:	0600      	lsls	r0, r0, #24
  5c:	3401      	adds	r4, #1
  5e:	3301      	adds	r3, #1
  60:	2800      	cmp	r0, #0
  62:	d1f1      	bne.n	48 <strncat+0x48>
  64:	1c38      	adds	r0, r7, #0
  66:	bdf0      	pop	{r4, r5, r6, r7, pc}

strtok.o:     file format elf32-littlearm


Disassembly of section .text:

00000000 <strtok>:
   0:	b500      	push	{lr}
   2:	4a03      	ldr	r2, [pc, #12]	@ (10 <strtok+0x10>)
   4:	6812      	ldr	r2, [r2, #0]
   6:	325c      	adds	r2, #92	@ 0x5c
   8:	f7ff fffe 	bl	0 <strtok_r>
   c:	bd00      	pop	{pc}
   e:	0000      	.short	0x0000
  10:	00000000 	.word	0x00000000

index.o:     file format elf32-littlearm


Disassembly of section .text:

00000000 <index>:
   0:	b500      	push	{lr}
   2:	f7ff fffe 	bl	0 <strchr>
   6:	bd00      	pop	{pc}

memchr.o:     file format elf32-littlearm


Disassembly of section .text:

00000000 <memchr>:
   0:	b5f0      	push	{r4, r5, r6, r7, lr}
   2:	1c0d      	adds	r5, r1, #0
   4:	1c01      	adds	r1, r0, #0
   6:	20ff      	movs	r0, #255	@ 0xff
   8:	4005      	ands	r5, r0
   a:	2a03      	cmp	r2, #3
   c:	d932      	bls.n	74 <memchr+0x74>
   e:	2003      	movs	r0, #3
  10:	4008      	ands	r0, r1
  12:	2800      	cmp	r0, #0
  14:	d12e      	bne.n	74 <memchr+0x74>
  16:	1c0c      	adds	r4, r1, #0
  18:	2600      	movs	r6, #0
  1a:	2100      	movs	r1, #0
  1c:	0230      	lsls	r0, r6, #8
  1e:	1946      	adds	r6, r0, r5
  20:	3101      	adds	r1, #1
  22:	2903      	cmp	r1, #3
  24:	d9fa      	bls.n	1c <memchr+0x1c>
  26:	2a03      	cmp	r2, #3
  28:	d917      	bls.n	5a <memchr+0x5a>
  2a:	480d      	ldr	r0, [pc, #52]	@ (60 <memchr+0x60>)
  2c:	4684      	mov	ip, r0
  2e:	4f0d      	ldr	r7, [pc, #52]	@ (64 <memchr+0x64>)
  30:	6821      	ldr	r1, [r4, #0]
  32:	4071      	eors	r1, r6
  34:	4663      	mov	r3, ip
  36:	18c8      	adds	r0, r1, r3
  38:	4388      	bics	r0, r1
  3a:	4038      	ands	r0, r7
  3c:	2800      	cmp	r0, #0
  3e:	d008      	beq.n	52 <memchr+0x52>
  40:	1c21      	adds	r1, r4, #0
  42:	2300      	movs	r3, #0
  44:	7808      	ldrb	r0, [r1, #0]
  46:	42a8      	cmp	r0, r5
  48:	d011      	beq.n	6e <memchr+0x6e>
  4a:	3101      	adds	r1, #1
  4c:	3301      	adds	r3, #1
  4e:	2b03      	cmp	r3, #3
  50:	d9f8      	bls.n	44 <memchr+0x44>
  52:	3a04      	subs	r2, #4
  54:	3404      	adds	r4, #4
  56:	2a03      	cmp	r2, #3
  58:	d8ea      	bhi.n	30 <memchr+0x30>
  5a:	1c21      	adds	r1, r4, #0
  5c:	e00a      	b.n	74 <memchr+0x74>
  5e:	0000      	.short	0x0000
  60:	fefefeff 	.word	0xfefefeff
  64:	80808080 	.word	0x80808080
  68:	7808      	ldrb	r0, [r1, #0]
  6a:	42a8      	cmp	r0, r5
  6c:	d101      	bne.n	72 <memchr+0x72>
  6e:	1c08      	adds	r0, r1, #0
  70:	e005      	b.n	7e <memchr+0x7e>
  72:	3101      	adds	r1, #1
  74:	1c10      	adds	r0, r2, #0
  76:	3a01      	subs	r2, #1
  78:	2800      	cmp	r0, #0
  7a:	d1f5      	bne.n	68 <memchr+0x68>
  7c:	2000      	movs	r0, #0
  7e:	bdf0      	pop	{r4, r5, r6, r7, pc}

bcopy.o:     file format elf32-littlearm


Disassembly of section .text:

00000000 <bcopy>:
   0:	b500      	push	{lr}
   2:	1c03      	adds	r3, r0, #0
   4:	1c08      	adds	r0, r1, #0
   6:	1c19      	adds	r1, r3, #0
   8:	f7ff fffe 	bl	0 <memmove>
   c:	bd00      	pop	{pc}
	...

strncasecmp.o:     file format elf32-littlearm


Disassembly of section .text:

00000000 <strncasecmp>:
   0:	b5f0      	push	{r4, r5, r6, r7, lr}
   2:	4657      	mov	r7, sl
   4:	464e      	mov	r6, r9
   6:	4645      	mov	r5, r8
   8:	b4e0      	push	{r5, r6, r7}
   a:	4684      	mov	ip, r0
   c:	1c0f      	adds	r7, r1, #0
   e:	1c14      	adds	r4, r2, #0
  10:	2c00      	cmp	r4, #0
  12:	d101      	bne.n	18 <strncasecmp+0x18>
  14:	2000      	movs	r0, #0
  16:	e03f      	b.n	98 <strncasecmp+0x98>
  18:	3c01      	subs	r4, #1
  1a:	4814      	ldr	r0, [pc, #80]	@ (6c <strncasecmp+0x6c>)
  1c:	4682      	mov	sl, r0
  1e:	46d0      	mov	r8, sl
  20:	2101      	movs	r1, #1
  22:	4689      	mov	r9, r1
  24:	4661      	mov	r1, ip
  26:	7808      	ldrb	r0, [r1, #0]
  28:	1c02      	adds	r2, r0, #0
  2a:	4640      	mov	r0, r8
  2c:	1811      	adds	r1, r2, r0
  2e:	4648      	mov	r0, r9
  30:	7809      	ldrb	r1, [r1, #0]
  32:	4008      	ands	r0, r1
  34:	1c15      	adds	r5, r2, #0
  36:	2800      	cmp	r0, #0
  38:	d000      	beq.n	3c <strncasecmp+0x3c>
  3a:	3220      	adds	r2, #32
  3c:	7838      	ldrb	r0, [r7, #0]
  3e:	1c03      	adds	r3, r0, #0
  40:	4640      	mov	r0, r8
  42:	1819      	adds	r1, r3, r0
  44:	4648      	mov	r0, r9
  46:	7809      	ldrb	r1, [r1, #0]
  48:	4008      	ands	r0, r1
  4a:	1c1e      	adds	r6, r3, #0
  4c:	2800      	cmp	r0, #0
  4e:	d000      	beq.n	52 <strncasecmp+0x52>
  50:	3320      	adds	r3, #32
  52:	429a      	cmp	r2, r3
  54:	d10c      	bne.n	70 <strncasecmp+0x70>
  56:	2c00      	cmp	r4, #0
  58:	d00a      	beq.n	70 <strncasecmp+0x70>
  5a:	2d00      	cmp	r5, #0
  5c:	d008      	beq.n	70 <strncasecmp+0x70>
  5e:	2e00      	cmp	r6, #0
  60:	d006      	beq.n	70 <strncasecmp+0x70>
  62:	2101      	movs	r1, #1
  64:	448c      	add	ip, r1
  66:	3701      	adds	r7, #1
  68:	3c01      	subs	r4, #1
  6a:	e7db      	b.n	24 <strncasecmp+0x24>
  6c:	00000001 	.word	0x00000001
  70:	1c2b      	adds	r3, r5, #0
  72:	4650      	mov	r0, sl
  74:	1819      	adds	r1, r3, r0
  76:	2401      	movs	r4, #1
  78:	1c20      	adds	r0, r4, #0
  7a:	7809      	ldrb	r1, [r1, #0]
  7c:	4008      	ands	r0, r1
  7e:	2800      	cmp	r0, #0
  80:	d000      	beq.n	84 <strncasecmp+0x84>
  82:	3320      	adds	r3, #32
  84:	1c32      	adds	r2, r6, #0
  86:	4650      	mov	r0, sl
  88:	1811      	adds	r1, r2, r0
  8a:	1c20      	adds	r0, r4, #0
  8c:	7809      	ldrb	r1, [r1, #0]
  8e:	4008      	ands	r0, r1
  90:	2800      	cmp	r0, #0
  92:	d000      	beq.n	96 <strncasecmp+0x96>
  94:	3220      	adds	r2, #32
  96:	1a98      	subs	r0, r3, r2
  98:	bc38      	pop	{r3, r4, r5}
  9a:	4698      	mov	r8, r3
  9c:	46a1      	mov	r9, r4
  9e:	46aa      	mov	sl, r5
  a0:	bdf0      	pop	{r4, r5, r6, r7, pc}
	...

memcpy.o:     file format elf32-littlearm


Disassembly of section .text:

00000000 <memcpy>:
   0:	b530      	push	{r4, r5, lr}
   2:	1c05      	adds	r5, r0, #0
   4:	1c2c      	adds	r4, r5, #0
   6:	1c0b      	adds	r3, r1, #0
   8:	2a0f      	cmp	r2, #15
   a:	d919      	bls.n	40 <memcpy+0x40>
   c:	1c18      	adds	r0, r3, #0
   e:	4328      	orrs	r0, r5
  10:	2103      	movs	r1, #3
  12:	4008      	ands	r0, r1
  14:	2800      	cmp	r0, #0
  16:	d113      	bne.n	40 <memcpy+0x40>
  18:	1c29      	adds	r1, r5, #0
  1a:	cb01      	ldmia	r3!, {r0}
  1c:	c101      	stmia	r1!, {r0}
  1e:	cb01      	ldmia	r3!, {r0}
  20:	c101      	stmia	r1!, {r0}
  22:	cb01      	ldmia	r3!, {r0}
  24:	c101      	stmia	r1!, {r0}
  26:	cb01      	ldmia	r3!, {r0}
  28:	c101      	stmia	r1!, {r0}
  2a:	3a10      	subs	r2, #16
  2c:	2a0f      	cmp	r2, #15
  2e:	d8f4      	bhi.n	1a <memcpy+0x1a>
  30:	2a03      	cmp	r2, #3
  32:	d904      	bls.n	3e <memcpy+0x3e>
  34:	cb01      	ldmia	r3!, {r0}
  36:	c101      	stmia	r1!, {r0}
  38:	3a04      	subs	r2, #4
  3a:	2a03      	cmp	r2, #3
  3c:	d8fa      	bhi.n	34 <memcpy+0x34>
  3e:	1c0c      	adds	r4, r1, #0
  40:	3a01      	subs	r2, #1
  42:	2001      	movs	r0, #1
  44:	4240      	negs	r0, r0
  46:	4282      	cmp	r2, r0
  48:	d007      	beq.n	5a <memcpy+0x5a>
  4a:	1c01      	adds	r1, r0, #0
  4c:	7818      	ldrb	r0, [r3, #0]
  4e:	7020      	strb	r0, [r4, #0]
  50:	3301      	adds	r3, #1
  52:	3401      	adds	r4, #1
  54:	3a01      	subs	r2, #1
  56:	428a      	cmp	r2, r1
  58:	d1f8      	bne.n	4c <memcpy+0x4c>
  5a:	1c28      	adds	r0, r5, #0
  5c:	bd30      	pop	{r4, r5, pc}
	...

strcpy.o:     file format elf32-littlearm


Disassembly of section .text:

00000000 <strcpy>:
   0:	b570      	push	{r4, r5, r6, lr}
   2:	1c06      	adds	r6, r0, #0
   4:	1c33      	adds	r3, r6, #0
   6:	1c0a      	adds	r2, r1, #0
   8:	1c10      	adds	r0, r2, #0
   a:	4330      	orrs	r0, r6
   c:	2103      	movs	r1, #3
   e:	4008      	ands	r0, r1
  10:	2800      	cmp	r0, #0
  12:	d111      	bne.n	38 <strcpy+0x38>
  14:	6811      	ldr	r1, [r2, #0]
  16:	4d02      	ldr	r5, [pc, #8]	@ (20 <strcpy+0x20>)
  18:	1948      	adds	r0, r1, r5
  1a:	4388      	bics	r0, r1
  1c:	4c01      	ldr	r4, [pc, #4]	@ (24 <strcpy+0x24>)
  1e:	e008      	b.n	32 <strcpy+0x32>
  20:	fefefeff 	.word	0xfefefeff
  24:	80808080 	.word	0x80808080
  28:	ca01      	ldmia	r2!, {r0}
  2a:	c301      	stmia	r3!, {r0}
  2c:	6811      	ldr	r1, [r2, #0]
  2e:	1948      	adds	r0, r1, r5
  30:	4388      	bics	r0, r1
  32:	4020      	ands	r0, r4
  34:	2800      	cmp	r0, #0
  36:	d0f7      	beq.n	28 <strcpy+0x28>
  38:	7810      	ldrb	r0, [r2, #0]
  3a:	7018      	strb	r0, [r3, #0]
  3c:	0600      	lsls	r0, r0, #24
  3e:	3201      	adds	r2, #1
  40:	3301      	adds	r3, #1
  42:	2800      	cmp	r0, #0
  44:	d1f8      	bne.n	38 <strcpy+0x38>
  46:	1c30      	adds	r0, r6, #0
  48:	bd70      	pop	{r4, r5, r6, pc}
	...

strupr.o:     file format elf32-littlearm


Disassembly of section .text:

00000000 <strupr>:
   0:	b570      	push	{r4, r5, r6, lr}
   2:	1c04      	adds	r4, r0, #0
   4:	1c23      	adds	r3, r4, #0
   6:	7820      	ldrb	r0, [r4, #0]
   8:	2800      	cmp	r0, #0
   a:	d00f      	beq.n	2c <strupr+0x2c>
   c:	4d08      	ldr	r5, [pc, #32]	@ (30 <strupr+0x30>)
   e:	2602      	movs	r6, #2
  10:	781a      	ldrb	r2, [r3, #0]
  12:	1951      	adds	r1, r2, r5
  14:	1c30      	adds	r0, r6, #0
  16:	7809      	ldrb	r1, [r1, #0]
  18:	4008      	ands	r0, r1
  1a:	2800      	cmp	r0, #0
  1c:	d002      	beq.n	24 <strupr+0x24>
  1e:	1c10      	adds	r0, r2, #0
  20:	3820      	subs	r0, #32
  22:	7018      	strb	r0, [r3, #0]
  24:	3301      	adds	r3, #1
  26:	7818      	ldrb	r0, [r3, #0]
  28:	2800      	cmp	r0, #0
  2a:	d1f1      	bne.n	10 <strupr+0x10>
  2c:	1c20      	adds	r0, r4, #0
  2e:	bd70      	pop	{r4, r5, r6, pc}
  30:	00000001 	.word	0x00000001

strchr.o:     file format elf32-littlearm


Disassembly of section .text:

00000000 <strchr>:
   0:	b5f0      	push	{r4, r5, r6, r7, lr}
   2:	1c02      	adds	r2, r0, #0
   4:	0609      	lsls	r1, r1, #24
   6:	0e0f      	lsrs	r7, r1, #24
   8:	2003      	movs	r0, #3
   a:	4010      	ands	r0, r2
   c:	2800      	cmp	r0, #0
   e:	d12a      	bne.n	66 <strchr+0x66>
  10:	2500      	movs	r5, #0
  12:	2000      	movs	r0, #0
  14:	6814      	ldr	r4, [r2, #0]
  16:	022d      	lsls	r5, r5, #8
  18:	433d      	orrs	r5, r7
  1a:	3001      	adds	r0, #1
  1c:	2803      	cmp	r0, #3
  1e:	d9fa      	bls.n	16 <strchr+0x16>
  20:	1c13      	adds	r3, r2, #0
  22:	4806      	ldr	r0, [pc, #24]	@ (3c <strchr+0x3c>)
  24:	4684      	mov	ip, r0
  26:	1820      	adds	r0, r4, r0
  28:	43a0      	bics	r0, r4
  2a:	4e05      	ldr	r6, [pc, #20]	@ (40 <strchr+0x40>)
  2c:	4030      	ands	r0, r6
  2e:	2800      	cmp	r0, #0
  30:	d118      	bne.n	64 <strchr+0x64>
  32:	1c29      	adds	r1, r5, #0
  34:	4061      	eors	r1, r4
  36:	4a01      	ldr	r2, [pc, #4]	@ (3c <strchr+0x3c>)
  38:	e00f      	b.n	5a <strchr+0x5a>
  3a:	0000      	.short	0x0000
  3c:	fefefeff 	.word	0xfefefeff
  40:	80808080 	.word	0x80808080
  44:	3304      	adds	r3, #4
  46:	681a      	ldr	r2, [r3, #0]
  48:	4661      	mov	r1, ip
  4a:	1850      	adds	r0, r2, r1
  4c:	4390      	bics	r0, r2
  4e:	4030      	ands	r0, r6
  50:	2800      	cmp	r0, #0
  52:	d107      	bne.n	64 <strchr+0x64>
  54:	1c29      	adds	r1, r5, #0
  56:	4051      	eors	r1, r2
  58:	4662      	mov	r2, ip
  5a:	1888      	adds	r0, r1, r2
  5c:	4388      	bics	r0, r1
  5e:	4030      	ands	r0, r6
  60:	2800      	cmp	r0, #0
  62:	d0ef      	beq.n	44 <strchr+0x44>
  64:	1c1a      	adds	r2, r3, #0
  66:	7810      	ldrb	r0, [r2, #0]
  68:	2800      	cmp	r0, #0
  6a:	d007      	beq.n	7c <strchr+0x7c>
  6c:	42b8      	cmp	r0, r7
  6e:	d00a      	beq.n	86 <strchr+0x86>
  70:	3201      	adds	r2, #1
  72:	7810      	ldrb	r0, [r2, #0]
  74:	2800      	cmp	r0, #0
  76:	d001      	beq.n	7c <strchr+0x7c>
  78:	42b8      	cmp	r0, r7
  7a:	d1f9      	bne.n	70 <strchr+0x70>
  7c:	7810      	ldrb	r0, [r2, #0]
  7e:	42b8      	cmp	r0, r7
  80:	d001      	beq.n	86 <strchr+0x86>
  82:	2000      	movs	r0, #0
  84:	e000      	b.n	88 <strchr+0x88>
  86:	1c10      	adds	r0, r2, #0
  88:	bdf0      	pop	{r4, r5, r6, r7, pc}
	...

memmove.o:     file format elf32-littlearm


Disassembly of section .text:

00000000 <memmove>:
   0:	b530      	push	{r4, r5, lr}
   2:	1c05      	adds	r5, r0, #0
   4:	1c2c      	adds	r4, r5, #0
   6:	1c0b      	adds	r3, r1, #0
   8:	42ab      	cmp	r3, r5
   a:	d212      	bcs.n	32 <memmove+0x32>
   c:	1898      	adds	r0, r3, r2
   e:	4285      	cmp	r5, r0
  10:	d20f      	bcs.n	32 <memmove+0x32>
  12:	1c03      	adds	r3, r0, #0
  14:	18ac      	adds	r4, r5, r2
  16:	3a01      	subs	r2, #1
  18:	2001      	movs	r0, #1
  1a:	4240      	negs	r0, r0
  1c:	4282      	cmp	r2, r0
  1e:	d031      	beq.n	84 <memmove+0x84>
  20:	1c01      	adds	r1, r0, #0
  22:	3c01      	subs	r4, #1
  24:	3b01      	subs	r3, #1
  26:	7818      	ldrb	r0, [r3, #0]
  28:	7020      	strb	r0, [r4, #0]
  2a:	3a01      	subs	r2, #1
  2c:	428a      	cmp	r2, r1
  2e:	d1f8      	bne.n	22 <memmove+0x22>
  30:	e028      	b.n	84 <memmove+0x84>
  32:	2a0f      	cmp	r2, #15
  34:	d919      	bls.n	6a <memmove+0x6a>
  36:	1c18      	adds	r0, r3, #0
  38:	4320      	orrs	r0, r4
  3a:	2103      	movs	r1, #3
  3c:	4008      	ands	r0, r1
  3e:	2800      	cmp	r0, #0
  40:	d113      	bne.n	6a <memmove+0x6a>
  42:	1c19      	adds	r1, r3, #0
  44:	c901      	ldmia	r1!, {r0}
  46:	c401      	stmia	r4!, {r0}
  48:	c901      	ldmia	r1!, {r0}
  4a:	c401      	stmia	r4!, {r0}
  4c:	c901      	ldmia	r1!, {r0}
  4e:	c401      	stmia	r4!, {r0}
  50:	c901      	ldmia	r1!, {r0}
  52:	c401      	stmia	r4!, {r0}
  54:	3a10      	subs	r2, #16
  56:	2a0f      	cmp	r2, #15
  58:	d8f4      	bhi.n	44 <memmove+0x44>
  5a:	2a03      	cmp	r2, #3
  5c:	d904      	bls.n	68 <memmove+0x68>
  5e:	c901      	ldmia	r1!, {r0}
  60:	c401      	stmia	r4!, {r0}
  62:	3a04      	subs	r2, #4
  64:	2a03      	cmp	r2, #3
  66:	d8fa      	bhi.n	5e <memmove+0x5e>
  68:	1c0b      	adds	r3, r1, #0
  6a:	3a01      	subs	r2, #1
  6c:	2001      	movs	r0, #1
  6e:	4240      	negs	r0, r0
  70:	4282      	cmp	r2, r0
  72:	d007      	beq.n	84 <memmove+0x84>
  74:	1c01      	adds	r1, r0, #0
  76:	7818      	ldrb	r0, [r3, #0]
  78:	7020      	strb	r0, [r4, #0]
  7a:	3301      	adds	r3, #1
  7c:	3401      	adds	r4, #1
  7e:	3a01      	subs	r2, #1
  80:	428a      	cmp	r2, r1
  82:	d1f8      	bne.n	76 <memmove+0x76>
  84:	1c28      	adds	r0, r5, #0
  86:	bd30      	pop	{r4, r5, pc}

strcmp.o:     file format elf32-littlearm


Disassembly of section .text:

00000000 <strcmp>:
   0:	b530      	push	{r4, r5, lr}
   2:	1c02      	adds	r2, r0, #0
   4:	1c0b      	adds	r3, r1, #0
   6:	4318      	orrs	r0, r3
   8:	2103      	movs	r1, #3
   a:	4008      	ands	r0, r1
   c:	2800      	cmp	r0, #0
   e:	d11a      	bne.n	46 <strcmp+0x46>
  10:	6811      	ldr	r1, [r2, #0]
  12:	6818      	ldr	r0, [r3, #0]
  14:	4281      	cmp	r1, r0
  16:	d116      	bne.n	46 <strcmp+0x46>
  18:	4d04      	ldr	r5, [pc, #16]	@ (2c <strcmp+0x2c>)
  1a:	4c05      	ldr	r4, [pc, #20]	@ (30 <strcmp+0x30>)
  1c:	6811      	ldr	r1, [r2, #0]
  1e:	1948      	adds	r0, r1, r5
  20:	4388      	bics	r0, r1
  22:	4020      	ands	r0, r4
  24:	2800      	cmp	r0, #0
  26:	d005      	beq.n	34 <strcmp+0x34>
  28:	2000      	movs	r0, #0
  2a:	e015      	b.n	58 <strcmp+0x58>
  2c:	fefefeff 	.word	0xfefefeff
  30:	80808080 	.word	0x80808080
  34:	3204      	adds	r2, #4
  36:	3304      	adds	r3, #4
  38:	6811      	ldr	r1, [r2, #0]
  3a:	6818      	ldr	r0, [r3, #0]
  3c:	4281      	cmp	r1, r0
  3e:	d0ed      	beq.n	1c <strcmp+0x1c>
  40:	e001      	b.n	46 <strcmp+0x46>
  42:	3201      	adds	r2, #1
  44:	3301      	adds	r3, #1
  46:	7810      	ldrb	r0, [r2, #0]
  48:	2800      	cmp	r0, #0
  4a:	d002      	beq.n	52 <strcmp+0x52>
  4c:	7819      	ldrb	r1, [r3, #0]
  4e:	4288      	cmp	r0, r1
  50:	d0f7      	beq.n	42 <strcmp+0x42>
  52:	7812      	ldrb	r2, [r2, #0]
  54:	781b      	ldrb	r3, [r3, #0]
  56:	1ad0      	subs	r0, r2, r3
  58:	bd30      	pop	{r4, r5, pc}
	...

strxfrm.o:     file format elf32-littlearm


Disassembly of section .text:

00000000 <strxfrm>:
   0:	b510      	push	{r4, lr}
   2:	1c03      	adds	r3, r0, #0
   4:	2400      	movs	r4, #0
   6:	e007      	b.n	18 <strxfrm+0x18>
   8:	7808      	ldrb	r0, [r1, #0]
   a:	7018      	strb	r0, [r3, #0]
   c:	0600      	lsls	r0, r0, #24
   e:	3101      	adds	r1, #1
  10:	3301      	adds	r3, #1
  12:	2800      	cmp	r0, #0
  14:	d00a      	beq.n	2c <strxfrm+0x2c>
  16:	3401      	adds	r4, #1
  18:	1c10      	adds	r0, r2, #0
  1a:	3a01      	subs	r2, #1
  1c:	2800      	cmp	r0, #0
  1e:	d1f3      	bne.n	8 <strxfrm+0x8>
  20:	e001      	b.n	26 <strxfrm+0x26>
  22:	3101      	adds	r1, #1
  24:	3401      	adds	r4, #1
  26:	7808      	ldrb	r0, [r1, #0]
  28:	2800      	cmp	r0, #0
  2a:	d1fa      	bne.n	22 <strxfrm+0x22>
  2c:	1c20      	adds	r0, r4, #0
  2e:	bd10      	pop	{r4, pc}

strcat.o:     file format elf32-littlearm


Disassembly of section .text:

00000000 <strcat>:
   0:	b570      	push	{r4, r5, r6, lr}
   2:	1c02      	adds	r2, r0, #0
   4:	1c0e      	adds	r6, r1, #0
   6:	1c14      	adds	r4, r2, #0
   8:	2003      	movs	r0, #3
   a:	4020      	ands	r0, r4
   c:	2800      	cmp	r0, #0
   e:	d112      	bne.n	36 <strcat+0x36>
  10:	6821      	ldr	r1, [r4, #0]
  12:	4d02      	ldr	r5, [pc, #8]	@ (1c <strcat+0x1c>)
  14:	1948      	adds	r0, r1, r5
  16:	4388      	bics	r0, r1
  18:	4b01      	ldr	r3, [pc, #4]	@ (20 <strcat+0x20>)
  1a:	e007      	b.n	2c <strcat+0x2c>
  1c:	fefefeff 	.word	0xfefefeff
  20:	80808080 	.word	0x80808080
  24:	3204      	adds	r2, #4
  26:	6811      	ldr	r1, [r2, #0]
  28:	1948      	adds	r0, r1, r5
  2a:	4388      	bics	r0, r1
  2c:	4018      	ands	r0, r3
  2e:	2800      	cmp	r0, #0
  30:	d0f8      	beq.n	24 <strcat+0x24>
  32:	e000      	b.n	36 <strcat+0x36>
  34:	3201      	adds	r2, #1
  36:	7810      	ldrb	r0, [r2, #0]
  38:	2800      	cmp	r0, #0
  3a:	d1fb      	bne.n	34 <strcat+0x34>
  3c:	1c10      	adds	r0, r2, #0
  3e:	1c31      	adds	r1, r6, #0
  40:	f7ff fffe 	bl	0 <strcpy>
  44:	1c20      	adds	r0, r4, #0
  46:	bd70      	pop	{r4, r5, r6, pc}

strrchr.o:     file format elf32-littlearm


Disassembly of section .text:

00000000 <strrchr>:
   0:	2300      	movs	r3, #0
   2:	0609      	lsls	r1, r1, #24
   4:	0e09      	lsrs	r1, r1, #24
   6:	e003      	b.n	10 <strrchr+0x10>
   8:	428a      	cmp	r2, r1
   a:	d100      	bne.n	e <strrchr+0xe>
   c:	1c03      	adds	r3, r0, #0
   e:	3001      	adds	r0, #1
  10:	7802      	ldrb	r2, [r0, #0]
  12:	2a00      	cmp	r2, #0
  14:	d1f8      	bne.n	8 <strrchr+0x8>
  16:	7802      	ldrb	r2, [r0, #0]
  18:	428a      	cmp	r2, r1
  1a:	d100      	bne.n	1e <strrchr+0x1e>
  1c:	1c03      	adds	r3, r0, #0
  1e:	1c18      	adds	r0, r3, #0
  20:	4770      	bx	lr
	...

strcspn.o:     file format elf32-littlearm


Disassembly of section .text:

00000000 <strcspn>:
   0:	b530      	push	{r4, r5, lr}
   2:	1c04      	adds	r4, r0, #0
   4:	1c25      	adds	r5, r4, #0
   6:	e010      	b.n	2a <strcspn+0x2a>
   8:	1c0a      	adds	r2, r1, #0
   a:	7810      	ldrb	r0, [r2, #0]
   c:	2800      	cmp	r0, #0
   e:	d00b      	beq.n	28 <strcspn+0x28>
  10:	4283      	cmp	r3, r0
  12:	d006      	beq.n	22 <strcspn+0x22>
  14:	3201      	adds	r2, #1
  16:	7810      	ldrb	r0, [r2, #0]
  18:	2800      	cmp	r0, #0
  1a:	d005      	beq.n	28 <strcspn+0x28>
  1c:	7823      	ldrb	r3, [r4, #0]
  1e:	4283      	cmp	r3, r0
  20:	d1f8      	bne.n	14 <strcspn+0x14>
  22:	7810      	ldrb	r0, [r2, #0]
  24:	2800      	cmp	r0, #0
  26:	d103      	bne.n	30 <strcspn+0x30>
  28:	3401      	adds	r4, #1
  2a:	7823      	ldrb	r3, [r4, #0]
  2c:	2b00      	cmp	r3, #0
  2e:	d1eb      	bne.n	8 <strcspn+0x8>
  30:	1b60      	subs	r0, r4, r5
  32:	bd30      	pop	{r4, r5, pc}

u_strerr.o:     file format elf32-littlearm


Disassembly of section .text:

00000000 <_user_strerror>:
   0:	2000      	movs	r0, #0
   2:	4770      	bx	lr

strcasecmp.o:     file format elf32-littlearm


Disassembly of section .text:

00000000 <strcasecmp>:
   0:	b5f0      	push	{r4, r5, r6, r7, lr}
   2:	1c04      	adds	r4, r0, #0
   4:	1c0d      	adds	r5, r1, #0
   6:	7820      	ldrb	r0, [r4, #0]
   8:	4918      	ldr	r1, [pc, #96]	@ (6c <strcasecmp+0x6c>)
   a:	468c      	mov	ip, r1
   c:	2800      	cmp	r0, #0
   e:	d018      	beq.n	42 <strcasecmp+0x42>
  10:	4666      	mov	r6, ip
  12:	2701      	movs	r7, #1
  14:	7823      	ldrb	r3, [r4, #0]
  16:	1999      	adds	r1, r3, r6
  18:	1c38      	adds	r0, r7, #0
  1a:	7809      	ldrb	r1, [r1, #0]
  1c:	4008      	ands	r0, r1
  1e:	2800      	cmp	r0, #0
  20:	d000      	beq.n	24 <strcasecmp+0x24>
  22:	3320      	adds	r3, #32
  24:	782a      	ldrb	r2, [r5, #0]
  26:	1991      	adds	r1, r2, r6
  28:	1c38      	adds	r0, r7, #0
  2a:	7809      	ldrb	r1, [r1, #0]
  2c:	4008      	ands	r0, r1
  2e:	2800      	cmp	r0, #0
  30:	d000      	beq.n	34 <strcasecmp+0x34>
  32:	3220      	adds	r2, #32
  34:	4293      	cmp	r3, r2
  36:	d104      	bne.n	42 <strcasecmp+0x42>
  38:	3401      	adds	r4, #1
  3a:	3501      	adds	r5, #1
  3c:	7820      	ldrb	r0, [r4, #0]
  3e:	2800      	cmp	r0, #0
  40:	d1e8      	bne.n	14 <strcasecmp+0x14>
  42:	7823      	ldrb	r3, [r4, #0]
  44:	4660      	mov	r0, ip
  46:	1819      	adds	r1, r3, r0
  48:	2401      	movs	r4, #1
  4a:	1c20      	adds	r0, r4, #0
  4c:	7809      	ldrb	r1, [r1, #0]
  4e:	4008      	ands	r0, r1
  50:	2800      	cmp	r0, #0
  52:	d000      	beq.n	56 <strcasecmp+0x56>
  54:	3320      	adds	r3, #32
  56:	782a      	ldrb	r2, [r5, #0]
  58:	4660      	mov	r0, ip
  5a:	1811      	adds	r1, r2, r0
  5c:	1c20      	adds	r0, r4, #0
  5e:	7809      	ldrb	r1, [r1, #0]
  60:	4008      	ands	r0, r1
  62:	2800      	cmp	r0, #0
  64:	d000      	beq.n	68 <strcasecmp+0x68>
  66:	3220      	adds	r2, #32
  68:	1a98      	subs	r0, r3, r2
  6a:	bdf0      	pop	{r4, r5, r6, r7, pc}
  6c:	00000001 	.word	0x00000001

mbtowc.o:     file format elf32-littlearm


Disassembly of section .text:

00000000 <mbtowc>:
   0:	1c03      	adds	r3, r0, #0
   2:	2900      	cmp	r1, #0
   4:	d101      	bne.n	a <mbtowc+0xa>
   6:	2000      	movs	r0, #0
   8:	e00c      	b.n	24 <mbtowc+0x24>
   a:	2a00      	cmp	r2, #0
   c:	d102      	bne.n	14 <mbtowc+0x14>
   e:	2001      	movs	r0, #1
  10:	4240      	negs	r0, r0
  12:	e007      	b.n	24 <mbtowc+0x24>
  14:	2b00      	cmp	r3, #0
  16:	d001      	beq.n	1c <mbtowc+0x1c>
  18:	7808      	ldrb	r0, [r1, #0]
  1a:	6018      	str	r0, [r3, #0]
  1c:	780a      	ldrb	r2, [r1, #0]
  1e:	4250      	negs	r0, r2
  20:	4310      	orrs	r0, r2
  22:	0fc0      	lsrs	r0, r0, #31
  24:	4770      	bx	lr
	...

abs.o:     file format elf32-littlearm


Disassembly of section .text:

00000000 <abs>:
   0:	2800      	cmp	r0, #0
   2:	da00      	bge.n	6 <abs+0x6>
   4:	4240      	negs	r0, r0
   6:	4770      	bx	lr

labs.o:     file format elf32-littlearm


Disassembly of section .text:

00000000 <labs>:
   0:	2800      	cmp	r0, #0
   2:	da00      	bge.n	6 <labs+0x6>
   4:	4240      	negs	r0, r0
   6:	4770      	bx	lr

__adjust.o:     file format elf32-littlearm


Disassembly of section .text:

00000000 <__adjust>:
   0:	b570      	push	{r4, r5, r6, lr}
   2:	1c04      	adds	r4, r0, #0
   4:	1c16      	adds	r6, r2, #0
   6:	209a      	movs	r0, #154	@ 0x9a
   8:	0040      	lsls	r0, r0, #1
   a:	4286      	cmp	r6, r0
   c:	dd0c      	ble.n	28 <__adjust+0x28>
   e:	2022      	movs	r0, #34	@ 0x22
  10:	6020      	str	r0, [r4, #0]
  12:	4804      	ldr	r0, [pc, #16]	@ (24 <__adjust+0x24>)
  14:	6841      	ldr	r1, [r0, #4]
  16:	6800      	ldr	r0, [r0, #0]
  18:	2b00      	cmp	r3, #0
  1a:	d037      	beq.n	8c <__adjust+0x8c>
  1c:	f7ff fffe 	bl	0 <__negdf2>
  20:	e034      	b.n	8c <__adjust+0x8c>
  22:	0000      	.short	0x0000
  24:	00000000 	.word	0x00000000
  28:	4803      	ldr	r0, [pc, #12]	@ (38 <__adjust+0x38>)
  2a:	4286      	cmp	r6, r0
  2c:	da0a      	bge.n	44 <__adjust+0x44>
  2e:	2022      	movs	r0, #34	@ 0x22
  30:	6020      	str	r0, [r4, #0]
  32:	4802      	ldr	r0, [pc, #8]	@ (3c <__adjust+0x3c>)
  34:	4902      	ldr	r1, [pc, #8]	@ (40 <__adjust+0x40>)
  36:	e029      	b.n	8c <__adjust+0x8c>
  38:	fffffecc 	.word	0xfffffecc
	...
  44:	680c      	ldr	r4, [r1, #0]
  46:	684d      	ldr	r5, [r1, #4]
  48:	2b00      	cmp	r3, #0
  4a:	d005      	beq.n	58 <__adjust+0x58>
  4c:	1c29      	adds	r1, r5, #0
  4e:	1c20      	adds	r0, r4, #0
  50:	f7ff fffe 	bl	0 <__negdf2>
  54:	1c0d      	adds	r5, r1, #0
  56:	1c04      	adds	r4, r0, #0
  58:	2e00      	cmp	r6, #0
  5a:	d102      	bne.n	62 <__adjust+0x62>
  5c:	1c29      	adds	r1, r5, #0
  5e:	1c20      	adds	r0, r4, #0
  60:	e014      	b.n	8c <__adjust+0x8c>
  62:	2e00      	cmp	r6, #0
  64:	da09      	bge.n	7a <__adjust+0x7a>
  66:	4270      	negs	r0, r6
  68:	f7ff fffe 	bl	0 <__exp10>
  6c:	1c0b      	adds	r3, r1, #0
  6e:	1c02      	adds	r2, r0, #0
  70:	1c29      	adds	r1, r5, #0
  72:	1c20      	adds	r0, r4, #0
  74:	f7ff fffe 	bl	0 <__divdf3>
  78:	e008      	b.n	8c <__adjust+0x8c>
  7a:	1c30      	adds	r0, r6, #0
  7c:	f7ff fffe 	bl	0 <__exp10>
  80:	1c0b      	adds	r3, r1, #0
  82:	1c02      	adds	r2, r0, #0
  84:	1c29      	adds	r1, r5, #0
  86:	1c20      	adds	r0, r4, #0
  88:	f7ff fffe 	bl	0 <__muldf3>
  8c:	bd70      	pop	{r4, r5, r6, pc}
	...

atof.o:     file format elf32-littlearm


Disassembly of section .text:

00000000 <atof>:
   0:	b500      	push	{lr}
   2:	2100      	movs	r1, #0
   4:	f7ff fffe 	bl	0 <strtod>
   8:	bd00      	pop	{pc}
	...

wctomb.o:     file format elf32-littlearm


Disassembly of section .text:

00000000 <wctomb>:
   0:	2800      	cmp	r0, #0
   2:	d002      	beq.n	a <wctomb+0xa>
   4:	7001      	strb	r1, [r0, #0]
   6:	2001      	movs	r0, #1
   8:	e000      	b.n	c <wctomb+0xc>
   a:	2000      	movs	r0, #0
   c:	4770      	bx	lr
	...

strdup.o:     file format elf32-littlearm


Disassembly of section .text:

00000000 <strdup>:
   0:	b570      	push	{r4, r5, r6, lr}
   2:	1c05      	adds	r5, r0, #0
   4:	f7ff fffe 	bl	0 <strlen>
   8:	1c44      	adds	r4, r0, #1
   a:	1c20      	adds	r0, r4, #0
   c:	f7ff fffe 	bl	0 <malloc>
  10:	1c06      	adds	r6, r0, #0
  12:	2800      	cmp	r0, #0
  14:	d003      	beq.n	1e <strdup+0x1e>
  16:	1c29      	adds	r1, r5, #0
  18:	1c22      	adds	r2, r4, #0
  1a:	f7ff fffe 	bl	0 <memcpy>
  1e:	1c30      	adds	r0, r6, #0
  20:	bd70      	pop	{r4, r5, r6, pc}
	...

bsearch.o:     file format elf32-littlearm


Disassembly of section .text:

00000000 <bsearch>:
   0:	b5f0      	push	{r4, r5, r6, r7, lr}
   2:	4657      	mov	r7, sl
   4:	464e      	mov	r6, r9
   6:	4645      	mov	r5, r8
   8:	b4e0      	push	{r5, r6, r7}
   a:	4682      	mov	sl, r0
   c:	4689      	mov	r9, r1
   e:	4698      	mov	r8, r3
  10:	2700      	movs	r7, #0
  12:	1c15      	adds	r5, r2, #0
  14:	2d00      	cmp	r5, #0
  16:	d018      	beq.n	4a <bsearch+0x4a>
  18:	2b00      	cmp	r3, #0
  1a:	d114      	bne.n	46 <bsearch+0x46>
  1c:	e015      	b.n	4a <bsearch+0x4a>
  1e:	1c30      	adds	r0, r6, #0
  20:	e014      	b.n	4c <bsearch+0x4c>
  22:	1978      	adds	r0, r7, r5
  24:	0844      	lsrs	r4, r0, #1
  26:	4640      	mov	r0, r8
  28:	4360      	muls	r0, r4
  2a:	4649      	mov	r1, r9
  2c:	180e      	adds	r6, r1, r0
  2e:	4650      	mov	r0, sl
  30:	1c31      	adds	r1, r6, #0
  32:	9a08      	ldr	r2, [sp, #32]
  34:	f7ff fffe 	bl	0 <_call_via_r2>
  38:	2800      	cmp	r0, #0
  3a:	da01      	bge.n	40 <bsearch+0x40>
  3c:	1c25      	adds	r5, r4, #0
  3e:	e002      	b.n	46 <bsearch+0x46>
  40:	2800      	cmp	r0, #0
  42:	ddec      	ble.n	1e <bsearch+0x1e>
  44:	1c67      	adds	r7, r4, #1
  46:	42af      	cmp	r7, r5
  48:	d3eb      	bcc.n	22 <bsearch+0x22>
  4a:	2000      	movs	r0, #0
  4c:	bc38      	pop	{r3, r4, r5}
  4e:	4698      	mov	r8, r3
  50:	46a1      	mov	r9, r4
  52:	46aa      	mov	sl, r5
  54:	bdf0      	pop	{r4, r5, r6, r7, pc}
	...

wcstombs.o:     file format elf32-littlearm


Disassembly of section .text:

00000000 <wcstombs>:
   0:	b510      	push	{r4, lr}
   2:	1c03      	adds	r3, r0, #0
   4:	1c0c      	adds	r4, r1, #0
   6:	2100      	movs	r1, #0
   8:	2a00      	cmp	r2, #0
   a:	d009      	beq.n	20 <wcstombs+0x20>
   c:	cc01      	ldmia	r4!, {r0}
   e:	7018      	strb	r0, [r3, #0]
  10:	0600      	lsls	r0, r0, #24
  12:	3301      	adds	r3, #1
  14:	2800      	cmp	r0, #0
  16:	d003      	beq.n	20 <wcstombs+0x20>
  18:	3101      	adds	r1, #1
  1a:	3a01      	subs	r2, #1
  1c:	2a00      	cmp	r2, #0
  1e:	d1f5      	bne.n	c <wcstombs+0xc>
  20:	1c08      	adds	r0, r1, #0
  22:	bd10      	pop	{r4, pc}

mbtowc_r.o:     file format elf32-littlearm


Disassembly of section .text:

00000000 <_mbtowc_r>:
   0:	b081      	sub	sp, #4
   2:	2900      	cmp	r1, #0
   4:	d100      	bne.n	8 <_mbtowc_r+0x8>
   6:	4669      	mov	r1, sp
   8:	2a00      	cmp	r2, #0
   a:	d00b      	beq.n	24 <_mbtowc_r+0x24>
   c:	2b00      	cmp	r3, #0
   e:	d102      	bne.n	16 <_mbtowc_r+0x16>
  10:	2001      	movs	r0, #1
  12:	4240      	negs	r0, r0
  14:	e007      	b.n	26 <_mbtowc_r+0x26>
  16:	7810      	ldrb	r0, [r2, #0]
  18:	6008      	str	r0, [r1, #0]
  1a:	7810      	ldrb	r0, [r2, #0]
  1c:	2800      	cmp	r0, #0
  1e:	d001      	beq.n	24 <_mbtowc_r+0x24>
  20:	2001      	movs	r0, #1
  22:	e000      	b.n	26 <_mbtowc_r+0x26>
  24:	2000      	movs	r0, #0
  26:	b001      	add	sp, #4
  28:	4770      	bx	lr
	...

realloc.o:     file format elf32-littlearm


Disassembly of section .text:

00000000 <realloc>:
   0:	b500      	push	{lr}
   2:	1c03      	adds	r3, r0, #0
   4:	1c0a      	adds	r2, r1, #0
   6:	4803      	ldr	r0, [pc, #12]	@ (14 <realloc+0x14>)
   8:	6800      	ldr	r0, [r0, #0]
   a:	1c19      	adds	r1, r3, #0
   c:	f7ff fffe 	bl	0 <_realloc_r>
  10:	bd00      	pop	{pc}
  12:	0000      	.short	0x0000
  14:	00000000 	.word	0x00000000

assert.o:     file format elf32-littlearm


Disassembly of section .text:

00000000 <__assert>:
   0:	b510      	push	{r4, lr}
   2:	b081      	sub	sp, #4
   4:	1c03      	adds	r3, r0, #0
   6:	1c0c      	adds	r4, r1, #0
   8:	4804      	ldr	r0, [pc, #16]	@ (1c <__assert+0x1c>)
   a:	6800      	ldr	r0, [r0, #0]
   c:	68c0      	ldr	r0, [r0, #12]
   e:	4904      	ldr	r1, [pc, #16]	@ (20 <__assert+0x20>)
  10:	9400      	str	r4, [sp, #0]
  12:	f7ff fffe 	bl	0 <fiprintf>
  16:	f7ff fffe 	bl	0 <abort>
	...

qsort.o:     file format elf32-littlearm


Disassembly of section .text:

00000000 <qsort>:
   0:	b5f0      	push	{r4, r5, r6, r7, lr}
   2:	4657      	mov	r7, sl
   4:	464e      	mov	r6, r9
   6:	4645      	mov	r5, r8
   8:	b4e0      	push	{r5, r6, r7}
   a:	b088      	sub	sp, #32
   c:	9000      	str	r0, [sp, #0]
   e:	4689      	mov	r9, r1
  10:	1c17      	adds	r7, r2, #0
  12:	9301      	str	r3, [sp, #4]
  14:	2103      	movs	r1, #3
  16:	9800      	ldr	r0, [sp, #0]
  18:	4008      	ands	r0, r1
  1a:	2800      	cmp	r0, #0
  1c:	d109      	bne.n	32 <qsort+0x32>
  1e:	1c38      	adds	r0, r7, #0
  20:	4008      	ands	r0, r1
  22:	2800      	cmp	r0, #0
  24:	d105      	bne.n	32 <qsort+0x32>
  26:	2104      	movs	r1, #4
  28:	4079      	eors	r1, r7
  2a:	4248      	negs	r0, r1
  2c:	4308      	orrs	r0, r1
  2e:	0fc0      	lsrs	r0, r0, #31
  30:	e000      	b.n	34 <qsort+0x34>
  32:	2002      	movs	r0, #2
  34:	9003      	str	r0, [sp, #12]
  36:	2100      	movs	r1, #0
  38:	9104      	str	r1, [sp, #16]
  3a:	464a      	mov	r2, r9
  3c:	2a06      	cmp	r2, #6
  3e:	d843      	bhi.n	c8 <qsort+0xc8>
  40:	9800      	ldr	r0, [sp, #0]
  42:	19c5      	adds	r5, r0, r7
  44:	4648      	mov	r0, r9
  46:	4378      	muls	r0, r7
  48:	9a00      	ldr	r2, [sp, #0]
  4a:	1811      	adds	r1, r2, r0
  4c:	9007      	str	r0, [sp, #28]
  4e:	428d      	cmp	r5, r1
  50:	d300      	bcc.n	54 <qsort+0x54>
  52:	e297      	b.n	584 <qsort+0x584>
  54:	1c2e      	adds	r6, r5, #0
  56:	19ed      	adds	r5, r5, r7
  58:	46a8      	mov	r8, r5
  5a:	e022      	b.n	a2 <qsort+0xa2>
  5c:	9803      	ldr	r0, [sp, #12]
  5e:	2800      	cmp	r0, #0
  60:	d104      	bne.n	6c <qsort+0x6c>
  62:	6831      	ldr	r1, [r6, #0]
  64:	6828      	ldr	r0, [r5, #0]
  66:	6030      	str	r0, [r6, #0]
  68:	6029      	str	r1, [r5, #0]
  6a:	e019      	b.n	a0 <qsort+0xa0>
  6c:	9903      	ldr	r1, [sp, #12]
  6e:	2901      	cmp	r1, #1
  70:	dc0a      	bgt.n	88 <qsort+0x88>
  72:	08ba      	lsrs	r2, r7, #2
  74:	1c34      	adds	r4, r6, #0
  76:	1c2b      	adds	r3, r5, #0
  78:	6821      	ldr	r1, [r4, #0]
  7a:	6818      	ldr	r0, [r3, #0]
  7c:	c401      	stmia	r4!, {r0}
  7e:	c302      	stmia	r3!, {r1}
  80:	3a01      	subs	r2, #1
  82:	2a00      	cmp	r2, #0
  84:	dcf8      	bgt.n	78 <qsort+0x78>
  86:	e00b      	b.n	a0 <qsort+0xa0>
  88:	1c3b      	adds	r3, r7, #0
  8a:	1c34      	adds	r4, r6, #0
  8c:	1c2a      	adds	r2, r5, #0
  8e:	7821      	ldrb	r1, [r4, #0]
  90:	7810      	ldrb	r0, [r2, #0]
  92:	7020      	strb	r0, [r4, #0]
  94:	3401      	adds	r4, #1
  96:	7011      	strb	r1, [r2, #0]
  98:	3201      	adds	r2, #1
  9a:	3b01      	subs	r3, #1
  9c:	2b00      	cmp	r3, #0
  9e:	dcf6      	bgt.n	8e <qsort+0x8e>
  a0:	1c2e      	adds	r6, r5, #0
  a2:	9a00      	ldr	r2, [sp, #0]
  a4:	4296      	cmp	r6, r2
  a6:	d908      	bls.n	ba <qsort+0xba>
  a8:	1bf4      	subs	r4, r6, r7
  aa:	1c20      	adds	r0, r4, #0
  ac:	1c31      	adds	r1, r6, #0
  ae:	9a01      	ldr	r2, [sp, #4]
  b0:	f7ff fffe 	bl	0 <_call_via_r2>
  b4:	1c25      	adds	r5, r4, #0
  b6:	2800      	cmp	r0, #0
  b8:	dcd0      	bgt.n	5c <qsort+0x5c>
  ba:	4645      	mov	r5, r8
  bc:	9900      	ldr	r1, [sp, #0]
  be:	9a07      	ldr	r2, [sp, #28]
  c0:	1888      	adds	r0, r1, r2
  c2:	4285      	cmp	r5, r0
  c4:	d3c6      	bcc.n	54 <qsort+0x54>
  c6:	e25d      	b.n	584 <qsort+0x584>
  c8:	4649      	mov	r1, r9
  ca:	0848      	lsrs	r0, r1, #1
  cc:	4378      	muls	r0, r7
  ce:	9a00      	ldr	r2, [sp, #0]
  d0:	1815      	adds	r5, r2, r0
  d2:	3901      	subs	r1, #1
  d4:	9105      	str	r1, [sp, #20]
  d6:	4648      	mov	r0, r9
  d8:	2807      	cmp	r0, #7
  da:	d800      	bhi.n	de <qsort+0xde>
  dc:	e0c6      	b.n	26c <qsort+0x26c>
  de:	1c16      	adds	r6, r2, #0
  e0:	1c08      	adds	r0, r1, #0
  e2:	4378      	muls	r0, r7
  e4:	1812      	adds	r2, r2, r0
  e6:	4692      	mov	sl, r2
  e8:	4649      	mov	r1, r9
  ea:	2928      	cmp	r1, #40	@ 0x28
  ec:	d800      	bhi.n	f0 <qsort+0xf0>
  ee:	e092      	b.n	216 <qsort+0x216>
  f0:	08c8      	lsrs	r0, r1, #3
  f2:	1c02      	adds	r2, r0, #0
  f4:	437a      	muls	r2, r7
  f6:	9202      	str	r2, [sp, #8]
  f8:	18b4      	adds	r4, r6, r2
  fa:	0050      	lsls	r0, r2, #1
  fc:	1986      	adds	r6, r0, r6
  fe:	9800      	ldr	r0, [sp, #0]
 100:	1c21      	adds	r1, r4, #0
 102:	9a01      	ldr	r2, [sp, #4]
 104:	f7ff fffe 	bl	0 <_call_via_r2>
 108:	2800      	cmp	r0, #0
 10a:	da10      	bge.n	12e <qsort+0x12e>
 10c:	1c20      	adds	r0, r4, #0
 10e:	1c31      	adds	r1, r6, #0
 110:	9a01      	ldr	r2, [sp, #4]
 112:	f7ff fffe 	bl	0 <_call_via_r2>
 116:	2800      	cmp	r0, #0
 118:	db1a      	blt.n	150 <qsort+0x150>
 11a:	9800      	ldr	r0, [sp, #0]
 11c:	1c31      	adds	r1, r6, #0
 11e:	9a01      	ldr	r2, [sp, #4]
 120:	f7ff fffe 	bl	0 <_call_via_r2>
 124:	9900      	ldr	r1, [sp, #0]
 126:	2800      	cmp	r0, #0
 128:	da13      	bge.n	152 <qsort+0x152>
 12a:	1c31      	adds	r1, r6, #0
 12c:	e011      	b.n	152 <qsort+0x152>
 12e:	1c20      	adds	r0, r4, #0
 130:	1c31      	adds	r1, r6, #0
 132:	9a01      	ldr	r2, [sp, #4]
 134:	f7ff fffe 	bl	0 <_call_via_r2>
 138:	2800      	cmp	r0, #0
 13a:	dc09      	bgt.n	150 <qsort+0x150>
 13c:	9800      	ldr	r0, [sp, #0]
 13e:	1c31      	adds	r1, r6, #0
 140:	9a01      	ldr	r2, [sp, #4]
 142:	f7ff fffe 	bl	0 <_call_via_r2>
 146:	1c31      	adds	r1, r6, #0
 148:	2800      	cmp	r0, #0
 14a:	da02      	bge.n	152 <qsort+0x152>
 14c:	9900      	ldr	r1, [sp, #0]
 14e:	e000      	b.n	152 <qsort+0x152>
 150:	1c21      	adds	r1, r4, #0
 152:	1c0e      	adds	r6, r1, #0
 154:	9802      	ldr	r0, [sp, #8]
 156:	1a28      	subs	r0, r5, r0
 158:	4680      	mov	r8, r0
 15a:	9902      	ldr	r1, [sp, #8]
 15c:	186c      	adds	r4, r5, r1
 15e:	1c29      	adds	r1, r5, #0
 160:	9a01      	ldr	r2, [sp, #4]
 162:	f7ff fffe 	bl	0 <_call_via_r2>
 166:	2800      	cmp	r0, #0
 168:	da10      	bge.n	18c <qsort+0x18c>
 16a:	1c28      	adds	r0, r5, #0
 16c:	1c21      	adds	r1, r4, #0
 16e:	9a01      	ldr	r2, [sp, #4]
 170:	f7ff fffe 	bl	0 <_call_via_r2>
 174:	2800      	cmp	r0, #0
 176:	db1a      	blt.n	1ae <qsort+0x1ae>
 178:	4640      	mov	r0, r8
 17a:	1c21      	adds	r1, r4, #0
 17c:	9a01      	ldr	r2, [sp, #4]
 17e:	f7ff fffe 	bl	0 <_call_via_r2>
 182:	4641      	mov	r1, r8
 184:	2800      	cmp	r0, #0
 186:	da13      	bge.n	1b0 <qsort+0x1b0>
 188:	1c21      	adds	r1, r4, #0
 18a:	e011      	b.n	1b0 <qsort+0x1b0>
 18c:	1c28      	adds	r0, r5, #0
 18e:	1c21      	adds	r1, r4, #0
 190:	9a01      	ldr	r2, [sp, #4]
 192:	f7ff fffe 	bl	0 <_call_via_r2>
 196:	2800      	cmp	r0, #0
 198:	dc09      	bgt.n	1ae <qsort+0x1ae>
 19a:	4640      	mov	r0, r8
 19c:	1c21      	adds	r1, r4, #0
 19e:	9a01      	ldr	r2, [sp, #4]
 1a0:	f7ff fffe 	bl	0 <_call_via_r2>
 1a4:	1c21      	adds	r1, r4, #0
 1a6:	2800      	cmp	r0, #0
 1a8:	da02      	bge.n	1b0 <qsort+0x1b0>
 1aa:	4641      	mov	r1, r8
 1ac:	e000      	b.n	1b0 <qsort+0x1b0>
 1ae:	1c29      	adds	r1, r5, #0
 1b0:	1c0d      	adds	r5, r1, #0
 1b2:	9902      	ldr	r1, [sp, #8]
 1b4:	0048      	lsls	r0, r1, #1
 1b6:	4652      	mov	r2, sl
 1b8:	1a12      	subs	r2, r2, r0
 1ba:	4690      	mov	r8, r2
 1bc:	4650      	mov	r0, sl
 1be:	1a44      	subs	r4, r0, r1
 1c0:	4640      	mov	r0, r8
 1c2:	1c21      	adds	r1, r4, #0
 1c4:	9a01      	ldr	r2, [sp, #4]
 1c6:	f7ff fffe 	bl	0 <_call_via_r2>
 1ca:	2800      	cmp	r0, #0
 1cc:	da10      	bge.n	1f0 <qsort+0x1f0>
 1ce:	1c20      	adds	r0, r4, #0
 1d0:	4651      	mov	r1, sl
 1d2:	9a01      	ldr	r2, [sp, #4]
 1d4:	f7ff fffe 	bl	0 <_call_via_r2>
 1d8:	2800      	cmp	r0, #0
 1da:	db1a      	blt.n	212 <qsort+0x212>
 1dc:	4640      	mov	r0, r8
 1de:	4651      	mov	r1, sl
 1e0:	9a01      	ldr	r2, [sp, #4]
 1e2:	f7ff fffe 	bl	0 <_call_via_r2>
 1e6:	4641      	mov	r1, r8
 1e8:	2800      	cmp	r0, #0
 1ea:	da13      	bge.n	214 <qsort+0x214>
 1ec:	4651      	mov	r1, sl
 1ee:	e011      	b.n	214 <qsort+0x214>
 1f0:	1c20      	adds	r0, r4, #0
 1f2:	4651      	mov	r1, sl
 1f4:	9a01      	ldr	r2, [sp, #4]
 1f6:	f7ff fffe 	bl	0 <_call_via_r2>
 1fa:	2800      	cmp	r0, #0
 1fc:	dc09      	bgt.n	212 <qsort+0x212>
 1fe:	4640      	mov	r0, r8
 200:	4651      	mov	r1, sl
 202:	9a01      	ldr	r2, [sp, #4]
 204:	f7ff fffe 	bl	0 <_call_via_r2>
 208:	4651      	mov	r1, sl
 20a:	2800      	cmp	r0, #0
 20c:	da02      	bge.n	214 <qsort+0x214>
 20e:	4641      	mov	r1, r8
 210:	e000      	b.n	214 <qsort+0x214>
 212:	1c21      	adds	r1, r4, #0
 214:	468a      	mov	sl, r1
 216:	1c30      	adds	r0, r6, #0
 218:	1c29      	adds	r1, r5, #0
 21a:	9a01      	ldr	r2, [sp, #4]
 21c:	f7ff fffe 	bl	0 <_call_via_r2>
 220:	2800      	cmp	r0, #0
 222:	da10      	bge.n	246 <qsort+0x246>
 224:	1c28      	adds	r0, r5, #0
 226:	4651      	mov	r1, sl
 228:	9a01      	ldr	r2, [sp, #4]
 22a:	f7ff fffe 	bl	0 <_call_via_r2>
 22e:	2800      	cmp	r0, #0
 230:	db1a      	blt.n	268 <qsort+0x268>
 232:	1c30      	adds	r0, r6, #0
 234:	4651      	mov	r1, sl
 236:	9a01      	ldr	r2, [sp, #4]
 238:	f7ff fffe 	bl	0 <_call_via_r2>
 23c:	1c31      	adds	r1, r6, #0
 23e:	2800      	cmp	r0, #0
 240:	da13      	bge.n	26a <qsort+0x26a>
 242:	4651      	mov	r1, sl
 244:	e011      	b.n	26a <qsort+0x26a>
 246:	1c28      	adds	r0, r5, #0
 248:	4651      	mov	r1, sl
 24a:	9a01      	ldr	r2, [sp, #4]
 24c:	f7ff fffe 	bl	0 <_call_via_r2>
 250:	2800      	cmp	r0, #0
 252:	dc09      	bgt.n	268 <qsort+0x268>
 254:	1c30      	adds	r0, r6, #0
 256:	4651      	mov	r1, sl
 258:	9a01      	ldr	r2, [sp, #4]
 25a:	f7ff fffe 	bl	0 <_call_via_r2>
 25e:	4651      	mov	r1, sl
 260:	2800      	cmp	r0, #0
 262:	da02      	bge.n	26a <qsort+0x26a>
 264:	1c31      	adds	r1, r6, #0
 266:	e000      	b.n	26a <qsort+0x26a>
 268:	1c29      	adds	r1, r5, #0
 26a:	1c0d      	adds	r5, r1, #0
 26c:	9803      	ldr	r0, [sp, #12]
 26e:	2800      	cmp	r0, #0
 270:	d10a      	bne.n	288 <qsort+0x288>
 272:	9a00      	ldr	r2, [sp, #0]
 274:	6811      	ldr	r1, [r2, #0]
 276:	6828      	ldr	r0, [r5, #0]
 278:	6010      	str	r0, [r2, #0]
 27a:	6029      	str	r1, [r5, #0]
 27c:	19d0      	adds	r0, r2, r7
 27e:	9006      	str	r0, [sp, #24]
 280:	4649      	mov	r1, r9
 282:	4379      	muls	r1, r7
 284:	9107      	str	r1, [sp, #28]
 286:	e023      	b.n	2d0 <qsort+0x2d0>
 288:	9a03      	ldr	r2, [sp, #12]
 28a:	2a01      	cmp	r2, #1
 28c:	dc0f      	bgt.n	2ae <qsort+0x2ae>
 28e:	08ba      	lsrs	r2, r7, #2
 290:	9c00      	ldr	r4, [sp, #0]
 292:	1c2b      	adds	r3, r5, #0
 294:	19e0      	adds	r0, r4, r7
 296:	9006      	str	r0, [sp, #24]
 298:	4649      	mov	r1, r9
 29a:	4379      	muls	r1, r7
 29c:	9107      	str	r1, [sp, #28]
 29e:	6821      	ldr	r1, [r4, #0]
 2a0:	6818      	ldr	r0, [r3, #0]
 2a2:	c401      	stmia	r4!, {r0}
 2a4:	c302      	stmia	r3!, {r1}
 2a6:	3a01      	subs	r2, #1
 2a8:	2a00      	cmp	r2, #0
 2aa:	dcf8      	bgt.n	29e <qsort+0x29e>
 2ac:	e010      	b.n	2d0 <qsort+0x2d0>
 2ae:	1c3c      	adds	r4, r7, #0
 2b0:	9b00      	ldr	r3, [sp, #0]
 2b2:	1c2a      	adds	r2, r5, #0
 2b4:	19d8      	adds	r0, r3, r7
 2b6:	9006      	str	r0, [sp, #24]
 2b8:	4649      	mov	r1, r9
 2ba:	4379      	muls	r1, r7
 2bc:	9107      	str	r1, [sp, #28]
 2be:	7819      	ldrb	r1, [r3, #0]
 2c0:	7810      	ldrb	r0, [r2, #0]
 2c2:	7018      	strb	r0, [r3, #0]
 2c4:	3301      	adds	r3, #1
 2c6:	7011      	strb	r1, [r2, #0]
 2c8:	3201      	adds	r2, #1
 2ca:	3c01      	subs	r4, #1
 2cc:	2c00      	cmp	r4, #0
 2ce:	dcf6      	bgt.n	2be <qsort+0x2be>
 2d0:	9e06      	ldr	r6, [sp, #24]
 2d2:	46b1      	mov	r9, r6
 2d4:	9a05      	ldr	r2, [sp, #20]
 2d6:	1c10      	adds	r0, r2, #0
 2d8:	4378      	muls	r0, r7
 2da:	9900      	ldr	r1, [sp, #0]
 2dc:	1809      	adds	r1, r1, r0
 2de:	4688      	mov	r8, r1
 2e0:	4645      	mov	r5, r8
 2e2:	e05d      	b.n	3a0 <qsort+0x3a0>
 2e4:	6831      	ldr	r1, [r6, #0]
 2e6:	6828      	ldr	r0, [r5, #0]
 2e8:	6030      	str	r0, [r6, #0]
 2ea:	6029      	str	r1, [r5, #0]
 2ec:	19f6      	adds	r6, r6, r7
 2ee:	46b2      	mov	sl, r6
 2f0:	1bed      	subs	r5, r5, r7
 2f2:	46ac      	mov	ip, r5
 2f4:	e021      	b.n	33a <qsort+0x33a>
 2f6:	9a03      	ldr	r2, [sp, #12]
 2f8:	2a01      	cmp	r2, #1
 2fa:	dc0e      	bgt.n	31a <qsort+0x31a>
 2fc:	08bb      	lsrs	r3, r7, #2
 2fe:	1c34      	adds	r4, r6, #0
 300:	1c2a      	adds	r2, r5, #0
 302:	19e0      	adds	r0, r4, r7
 304:	4682      	mov	sl, r0
 306:	1bd1      	subs	r1, r2, r7
 308:	468c      	mov	ip, r1
 30a:	6821      	ldr	r1, [r4, #0]
 30c:	6810      	ldr	r0, [r2, #0]
 30e:	c401      	stmia	r4!, {r0}
 310:	c202      	stmia	r2!, {r1}
 312:	3b01      	subs	r3, #1
 314:	2b00      	cmp	r3, #0
 316:	dcf8      	bgt.n	30a <qsort+0x30a>
 318:	e00f      	b.n	33a <qsort+0x33a>
 31a:	1c3c      	adds	r4, r7, #0
 31c:	1c33      	adds	r3, r6, #0
 31e:	1c2a      	adds	r2, r5, #0
 320:	19d8      	adds	r0, r3, r7
 322:	4682      	mov	sl, r0
 324:	1bd1      	subs	r1, r2, r7
 326:	468c      	mov	ip, r1
 328:	7819      	ldrb	r1, [r3, #0]
 32a:	7810      	ldrb	r0, [r2, #0]
 32c:	7018      	strb	r0, [r3, #0]
 32e:	3301      	adds	r3, #1
 330:	7011      	strb	r1, [r2, #0]
 332:	3201      	adds	r2, #1
 334:	3c01      	subs	r4, #1
 336:	2c00      	cmp	r4, #0
 338:	dcf6      	bgt.n	328 <qsort+0x328>
 33a:	2201      	movs	r2, #1
 33c:	9204      	str	r2, [sp, #16]
 33e:	4656      	mov	r6, sl
 340:	4665      	mov	r5, ip
 342:	e02d      	b.n	3a0 <qsort+0x3a0>
 344:	19f1      	adds	r1, r6, r7
 346:	468a      	mov	sl, r1
 348:	2800      	cmp	r0, #0
 34a:	d128      	bne.n	39e <qsort+0x39e>
 34c:	2201      	movs	r2, #1
 34e:	9204      	str	r2, [sp, #16]
 350:	9803      	ldr	r0, [sp, #12]
 352:	2800      	cmp	r0, #0
 354:	d106      	bne.n	364 <qsort+0x364>
 356:	464a      	mov	r2, r9
 358:	6811      	ldr	r1, [r2, #0]
 35a:	6830      	ldr	r0, [r6, #0]
 35c:	6010      	str	r0, [r2, #0]
 35e:	6031      	str	r1, [r6, #0]
 360:	19d6      	adds	r6, r2, r7
 362:	e01b      	b.n	39c <qsort+0x39c>
 364:	9803      	ldr	r0, [sp, #12]
 366:	2801      	cmp	r0, #1
 368:	dc0b      	bgt.n	382 <qsort+0x382>
 36a:	08bb      	lsrs	r3, r7, #2
 36c:	464a      	mov	r2, r9
 36e:	1c34      	adds	r4, r6, #0
 370:	19d6      	adds	r6, r2, r7
 372:	6811      	ldr	r1, [r2, #0]
 374:	6820      	ldr	r0, [r4, #0]
 376:	c201      	stmia	r2!, {r0}
 378:	c402      	stmia	r4!, {r1}
 37a:	3b01      	subs	r3, #1
 37c:	2b00      	cmp	r3, #0
 37e:	dcf8      	bgt.n	372 <qsort+0x372>
 380:	e00c      	b.n	39c <qsort+0x39c>
 382:	1c3c      	adds	r4, r7, #0
 384:	464a      	mov	r2, r9
 386:	1c33      	adds	r3, r6, #0
 388:	19d6      	adds	r6, r2, r7
 38a:	7811      	ldrb	r1, [r2, #0]
 38c:	7818      	ldrb	r0, [r3, #0]
 38e:	7010      	strb	r0, [r2, #0]
 390:	3201      	adds	r2, #1
 392:	7019      	strb	r1, [r3, #0]
 394:	3301      	adds	r3, #1
 396:	3c01      	subs	r4, #1
 398:	2c00      	cmp	r4, #0
 39a:	dcf6      	bgt.n	38a <qsort+0x38a>
 39c:	46b1      	mov	r9, r6
 39e:	4656      	mov	r6, sl
 3a0:	42ae      	cmp	r6, r5
 3a2:	d835      	bhi.n	410 <qsort+0x410>
 3a4:	1c30      	adds	r0, r6, #0
 3a6:	9900      	ldr	r1, [sp, #0]
 3a8:	9a01      	ldr	r2, [sp, #4]
 3aa:	f7ff fffe 	bl	0 <_call_via_r2>
 3ae:	2800      	cmp	r0, #0
 3b0:	ddc8      	ble.n	344 <qsort+0x344>
 3b2:	e02d      	b.n	410 <qsort+0x410>
 3b4:	1be9      	subs	r1, r5, r7
 3b6:	468c      	mov	ip, r1
 3b8:	2800      	cmp	r0, #0
 3ba:	d128      	bne.n	40e <qsort+0x40e>
 3bc:	2201      	movs	r2, #1
 3be:	9204      	str	r2, [sp, #16]
 3c0:	9803      	ldr	r0, [sp, #12]
 3c2:	2800      	cmp	r0, #0
 3c4:	d106      	bne.n	3d4 <qsort+0x3d4>
 3c6:	6829      	ldr	r1, [r5, #0]
 3c8:	4642      	mov	r2, r8
 3ca:	6810      	ldr	r0, [r2, #0]
 3cc:	6028      	str	r0, [r5, #0]
 3ce:	6011      	str	r1, [r2, #0]
 3d0:	1bd5      	subs	r5, r2, r7
 3d2:	e01b      	b.n	40c <qsort+0x40c>
 3d4:	9803      	ldr	r0, [sp, #12]
 3d6:	2801      	cmp	r0, #1
 3d8:	dc0b      	bgt.n	3f2 <qsort+0x3f2>
 3da:	08bb      	lsrs	r3, r7, #2
 3dc:	1c2c      	adds	r4, r5, #0
 3de:	4642      	mov	r2, r8
 3e0:	1bd5      	subs	r5, r2, r7
 3e2:	6821      	ldr	r1, [r4, #0]
 3e4:	6810      	ldr	r0, [r2, #0]
 3e6:	c401      	stmia	r4!, {r0}
 3e8:	c202      	stmia	r2!, {r1}
 3ea:	3b01      	subs	r3, #1
 3ec:	2b00      	cmp	r3, #0
 3ee:	dcf8      	bgt.n	3e2 <qsort+0x3e2>
 3f0:	e00c      	b.n	40c <qsort+0x40c>
 3f2:	1c3c      	adds	r4, r7, #0
 3f4:	1c2b      	adds	r3, r5, #0
 3f6:	4642      	mov	r2, r8
 3f8:	1bd5      	subs	r5, r2, r7
 3fa:	7819      	ldrb	r1, [r3, #0]
 3fc:	7810      	ldrb	r0, [r2, #0]
 3fe:	7018      	strb	r0, [r3, #0]
 400:	3301      	adds	r3, #1
 402:	7011      	strb	r1, [r2, #0]
 404:	3201      	adds	r2, #1
 406:	3c01      	subs	r4, #1
 408:	2c00      	cmp	r4, #0
 40a:	dcf6      	bgt.n	3fa <qsort+0x3fa>
 40c:	46a8      	mov	r8, r5
 40e:	4665      	mov	r5, ip
 410:	42ae      	cmp	r6, r5
 412:	d80b      	bhi.n	42c <qsort+0x42c>
 414:	1c28      	adds	r0, r5, #0
 416:	9900      	ldr	r1, [sp, #0]
 418:	9a01      	ldr	r2, [sp, #4]
 41a:	f7ff fffe 	bl	0 <_call_via_r2>
 41e:	2800      	cmp	r0, #0
 420:	dac8      	bge.n	3b4 <qsort+0x3b4>
 422:	9803      	ldr	r0, [sp, #12]
 424:	2800      	cmp	r0, #0
 426:	d000      	beq.n	42a <qsort+0x42a>
 428:	e765      	b.n	2f6 <qsort+0x2f6>
 42a:	e75b      	b.n	2e4 <qsort+0x2e4>
 42c:	9904      	ldr	r1, [sp, #16]
 42e:	2900      	cmp	r1, #0
 430:	d140      	bne.n	4b4 <qsort+0x4b4>
 432:	9d06      	ldr	r5, [sp, #24]
 434:	9a00      	ldr	r2, [sp, #0]
 436:	9907      	ldr	r1, [sp, #28]
 438:	1850      	adds	r0, r2, r1
 43a:	4285      	cmp	r5, r0
 43c:	d300      	bcc.n	440 <qsort+0x440>
 43e:	e0a1      	b.n	584 <qsort+0x584>
 440:	1c2e      	adds	r6, r5, #0
 442:	19ed      	adds	r5, r5, r7
 444:	46a8      	mov	r8, r5
 446:	e022      	b.n	48e <qsort+0x48e>
 448:	9a03      	ldr	r2, [sp, #12]
 44a:	2a00      	cmp	r2, #0
 44c:	d104      	bne.n	458 <qsort+0x458>
 44e:	6831      	ldr	r1, [r6, #0]
 450:	6828      	ldr	r0, [r5, #0]
 452:	6030      	str	r0, [r6, #0]
 454:	6029      	str	r1, [r5, #0]
 456:	e019      	b.n	48c <qsort+0x48c>
 458:	9803      	ldr	r0, [sp, #12]
 45a:	2801      	cmp	r0, #1
 45c:	dc0a      	bgt.n	474 <qsort+0x474>
 45e:	08ba      	lsrs	r2, r7, #2
 460:	1c34      	adds	r4, r6, #0
 462:	1c2b      	adds	r3, r5, #0
 464:	6821      	ldr	r1, [r4, #0]
 466:	6818      	ldr	r0, [r3, #0]
 468:	c401      	stmia	r4!, {r0}
 46a:	c302      	stmia	r3!, {r1}
 46c:	3a01      	subs	r2, #1
 46e:	2a00      	cmp	r2, #0
 470:	dcf8      	bgt.n	464 <qsort+0x464>
 472:	e00b      	b.n	48c <qsort+0x48c>
 474:	1c3b      	adds	r3, r7, #0
 476:	1c34      	adds	r4, r6, #0
 478:	1c2a      	adds	r2, r5, #0
 47a:	7821      	ldrb	r1, [r4, #0]
 47c:	7810      	ldrb	r0, [r2, #0]
 47e:	7020      	strb	r0, [r4, #0]
 480:	3401      	adds	r4, #1
 482:	7011      	strb	r1, [r2, #0]
 484:	3201      	adds	r2, #1
 486:	3b01      	subs	r3, #1
 488:	2b00      	cmp	r3, #0
 48a:	dcf6      	bgt.n	47a <qsort+0x47a>
 48c:	1c2e      	adds	r6, r5, #0
 48e:	9900      	ldr	r1, [sp, #0]
 490:	428e      	cmp	r6, r1
 492:	d908      	bls.n	4a6 <qsort+0x4a6>
 494:	1bf4      	subs	r4, r6, r7
 496:	1c20      	adds	r0, r4, #0
 498:	1c31      	adds	r1, r6, #0
 49a:	9a01      	ldr	r2, [sp, #4]
 49c:	f7ff fffe 	bl	0 <_call_via_r2>
 4a0:	1c25      	adds	r5, r4, #0
 4a2:	2800      	cmp	r0, #0
 4a4:	dcd0      	bgt.n	448 <qsort+0x448>
 4a6:	4645      	mov	r5, r8
 4a8:	9900      	ldr	r1, [sp, #0]
 4aa:	9a07      	ldr	r2, [sp, #28]
 4ac:	1888      	adds	r0, r1, r2
 4ae:	4285      	cmp	r5, r0
 4b0:	d3c6      	bcc.n	440 <qsort+0x440>
 4b2:	e067      	b.n	584 <qsort+0x584>
 4b4:	9800      	ldr	r0, [sp, #0]
 4b6:	9907      	ldr	r1, [sp, #28]
 4b8:	1840      	adds	r0, r0, r1
 4ba:	4682      	mov	sl, r0
 4bc:	464a      	mov	r2, r9
 4be:	9800      	ldr	r0, [sp, #0]
 4c0:	1a11      	subs	r1, r2, r0
 4c2:	1ab0      	subs	r0, r6, r2
 4c4:	4681      	mov	r9, r0
 4c6:	4288      	cmp	r0, r1
 4c8:	dd00      	ble.n	4cc <qsort+0x4cc>
 4ca:	1c08      	adds	r0, r1, #0
 4cc:	4641      	mov	r1, r8
 4ce:	1b4d      	subs	r5, r1, r5
 4d0:	4652      	mov	r2, sl
 4d2:	1a52      	subs	r2, r2, r1
 4d4:	4690      	mov	r8, r2
 4d6:	2800      	cmp	r0, #0
 4d8:	dd1a      	ble.n	510 <qsort+0x510>
 4da:	1a31      	subs	r1, r6, r0
 4dc:	9a03      	ldr	r2, [sp, #12]
 4de:	2a01      	cmp	r2, #1
 4e0:	dc0a      	bgt.n	4f8 <qsort+0x4f8>
 4e2:	0882      	lsrs	r2, r0, #2
 4e4:	9c00      	ldr	r4, [sp, #0]
 4e6:	1c0b      	adds	r3, r1, #0
 4e8:	6821      	ldr	r1, [r4, #0]
 4ea:	6818      	ldr	r0, [r3, #0]
 4ec:	c401      	stmia	r4!, {r0}
 4ee:	c302      	stmia	r3!, {r1}
 4f0:	3a01      	subs	r2, #1
 4f2:	2a00      	cmp	r2, #0
 4f4:	dcf8      	bgt.n	4e8 <qsort+0x4e8>
 4f6:	e00b      	b.n	510 <qsort+0x510>
 4f8:	1c04      	adds	r4, r0, #0
 4fa:	9b00      	ldr	r3, [sp, #0]
 4fc:	1c0a      	adds	r2, r1, #0
 4fe:	7819      	ldrb	r1, [r3, #0]
 500:	7810      	ldrb	r0, [r2, #0]
 502:	7018      	strb	r0, [r3, #0]
 504:	3301      	adds	r3, #1
 506:	7011      	strb	r1, [r2, #0]
 508:	3201      	adds	r2, #1
 50a:	3c01      	subs	r4, #1
 50c:	2c00      	cmp	r4, #0
 50e:	dcf6      	bgt.n	4fe <qsort+0x4fe>
 510:	4641      	mov	r1, r8
 512:	1bc8      	subs	r0, r1, r7
 514:	42a8      	cmp	r0, r5
 516:	d900      	bls.n	51a <qsort+0x51a>
 518:	1c28      	adds	r0, r5, #0
 51a:	2800      	cmp	r0, #0
 51c:	dd1b      	ble.n	556 <qsort+0x556>
 51e:	4652      	mov	r2, sl
 520:	1a11      	subs	r1, r2, r0
 522:	9a03      	ldr	r2, [sp, #12]
 524:	2a01      	cmp	r2, #1
 526:	dc0a      	bgt.n	53e <qsort+0x53e>
 528:	0882      	lsrs	r2, r0, #2
 52a:	1c34      	adds	r4, r6, #0
 52c:	1c0b      	adds	r3, r1, #0
 52e:	6821      	ldr	r1, [r4, #0]
 530:	6818      	ldr	r0, [r3, #0]
 532:	c401      	stmia	r4!, {r0}
 534:	c302      	stmia	r3!, {r1}
 536:	3a01      	subs	r2, #1
 538:	2a00      	cmp	r2, #0
 53a:	dcf8      	bgt.n	52e <qsort+0x52e>
 53c:	e00b      	b.n	556 <qsort+0x556>
 53e:	1c04      	adds	r4, r0, #0
 540:	1c33      	adds	r3, r6, #0
 542:	1c0a      	adds	r2, r1, #0
 544:	7819      	ldrb	r1, [r3, #0]
 546:	7810      	ldrb	r0, [r2, #0]
 548:	7018      	strb	r0, [r3, #0]
 54a:	3301      	adds	r3, #1
 54c:	7011      	strb	r1, [r2, #0]
 54e:	3201      	adds	r2, #1
 550:	3c01      	subs	r4, #1
 552:	2c00      	cmp	r4, #0
 554:	dcf6      	bgt.n	544 <qsort+0x544>
 556:	4648      	mov	r0, r9
 558:	42b8      	cmp	r0, r7
 55a:	d908      	bls.n	56e <qsort+0x56e>
 55c:	1c39      	adds	r1, r7, #0
 55e:	f7ff fffe 	bl	0 <__udivsi3>
 562:	1c01      	adds	r1, r0, #0
 564:	9800      	ldr	r0, [sp, #0]
 566:	1c3a      	adds	r2, r7, #0
 568:	9b01      	ldr	r3, [sp, #4]
 56a:	f7ff fffe 	bl	0 <qsort>
 56e:	42bd      	cmp	r5, r7
 570:	d908      	bls.n	584 <qsort+0x584>
 572:	4650      	mov	r0, sl
 574:	1b40      	subs	r0, r0, r5
 576:	9000      	str	r0, [sp, #0]
 578:	1c28      	adds	r0, r5, #0
 57a:	1c39      	adds	r1, r7, #0
 57c:	f7ff fffe 	bl	0 <__udivsi3>
 580:	4681      	mov	r9, r0
 582:	e547      	b.n	14 <qsort+0x14>
 584:	b008      	add	sp, #32
 586:	bc38      	pop	{r3, r4, r5}
 588:	4698      	mov	r8, r3
 58a:	46a1      	mov	r9, r4
 58c:	46aa      	mov	sl, r5
 58e:	bdf0      	pop	{r4, r5, r6, r7, pc}

environ.o:     file format elf32-littlearm


eprintf.o:     file format elf32-littlearm


Disassembly of section .text:

00000000 <__eprintf>:
   0:	b570      	push	{r4, r5, r6, lr}
   2:	b081      	sub	sp, #4
   4:	1c04      	adds	r4, r0, #0
   6:	1c0d      	adds	r5, r1, #0
   8:	1c16      	adds	r6, r2, #0
   a:	4805      	ldr	r0, [pc, #20]	@ (20 <__eprintf+0x20>)
   c:	6800      	ldr	r0, [r0, #0]
   e:	68c0      	ldr	r0, [r0, #12]
  10:	9300      	str	r3, [sp, #0]
  12:	1c21      	adds	r1, r4, #0
  14:	1c2a      	adds	r2, r5, #0
  16:	1c33      	adds	r3, r6, #0
  18:	f7ff fffe 	bl	0 <fiprintf>
  1c:	f7ff fffe 	bl	0 <abort>
  20:	00000000 	.word	0x00000000

div.o:     file format elf32-littlearm


Disassembly of section .text:

00000000 <div>:
   0:	b5f0      	push	{r4, r5, r6, r7, lr}
   2:	4647      	mov	r7, r8
   4:	b480      	push	{r7}
   6:	4680      	mov	r8, r0
   8:	1c0c      	adds	r4, r1, #0
   a:	1c17      	adds	r7, r2, #0
   c:	1c20      	adds	r0, r4, #0
   e:	1c39      	adds	r1, r7, #0
  10:	f7ff fffe 	bl	0 <__divsi3>
  14:	1c05      	adds	r5, r0, #0
  16:	1c20      	adds	r0, r4, #0
  18:	1c39      	adds	r1, r7, #0
  1a:	f7ff fffe 	bl	0 <__modsi3>
  1e:	1c06      	adds	r6, r0, #0
  20:	2c00      	cmp	r4, #0
  22:	db04      	blt.n	2e <div+0x2e>
  24:	2800      	cmp	r0, #0
  26:	da06      	bge.n	36 <div+0x36>
  28:	3501      	adds	r5, #1
  2a:	1bf6      	subs	r6, r6, r7
  2c:	e003      	b.n	36 <div+0x36>
  2e:	2800      	cmp	r0, #0
  30:	dd01      	ble.n	36 <div+0x36>
  32:	3d01      	subs	r5, #1
  34:	19f6      	adds	r6, r6, r7
  36:	4640      	mov	r0, r8
  38:	6005      	str	r5, [r0, #0]
  3a:	6046      	str	r6, [r0, #4]
  3c:	bc08      	pop	{r3}
  3e:	4698      	mov	r8, r3
  40:	bdf0      	pop	{r4, r5, r6, r7, pc}
	...

mtrim.o:     file format elf32-littlearm


Disassembly of section .text:

00000000 <malloc_trim>:
   0:	b500      	push	{lr}
   2:	1c01      	adds	r1, r0, #0
   4:	4802      	ldr	r0, [pc, #8]	@ (10 <malloc_trim+0x10>)
   6:	6800      	ldr	r0, [r0, #0]
   8:	f7ff fffe 	bl	0 <_malloc_trim_r>
   c:	bd00      	pop	{pc}
   e:	0000      	.short	0x0000
  10:	00000000 	.word	0x00000000

rand_r.o:     file format elf32-littlearm


Disassembly of section .text:

00000000 <rand_r>:
   0:	1c02      	adds	r2, r0, #0
   2:	6811      	ldr	r1, [r2, #0]
   4:	4803      	ldr	r0, [pc, #12]	@ (14 <rand_r+0x14>)
   6:	4348      	muls	r0, r1
   8:	4903      	ldr	r1, [pc, #12]	@ (18 <rand_r+0x18>)
   a:	1840      	adds	r0, r0, r1
   c:	6010      	str	r0, [r2, #0]
   e:	4903      	ldr	r1, [pc, #12]	@ (1c <rand_r+0x1c>)
  10:	4008      	ands	r0, r1
  12:	4770      	bx	lr
  14:	41c64e6d 	.word	0x41c64e6d
  18:	00003039 	.word	0x00003039
  1c:	7fffffff 	.word	0x7fffffff

atoff.o:     file format elf32-littlearm


Disassembly of section .text:

00000000 <atoff>:
   0:	b500      	push	{lr}
   2:	2100      	movs	r1, #0
   4:	f7ff fffe 	bl	0 <strtodf>
   8:	bd00      	pop	{pc}
	...

strtod.o:     file format elf32-littlearm


Disassembly of section .text:

00000000 <_strtod_r>:
   0:	b5f0      	push	{r4, r5, r6, r7, lr}
   2:	4657      	mov	r7, sl
   4:	464e      	mov	r6, r9
   6:	4645      	mov	r5, r8
   8:	b4e0      	push	{r5, r6, r7}
   a:	b09a      	sub	sp, #104	@ 0x68
   c:	9003      	str	r0, [sp, #12]
   e:	1c0d      	adds	r5, r1, #0
  10:	9204      	str	r2, [sp, #16]
  12:	2200      	movs	r2, #0
  14:	4694      	mov	ip, r2
  16:	2000      	movs	r0, #0
  18:	9008      	str	r0, [sp, #32]
  1a:	2600      	movs	r6, #0
  1c:	2700      	movs	r7, #0
  1e:	950a      	str	r5, [sp, #40]	@ 0x28
  20:	990a      	ldr	r1, [sp, #40]	@ 0x28
  22:	7808      	ldrb	r0, [r1, #0]
  24:	282d      	cmp	r0, #45	@ 0x2d
  26:	d870      	bhi.n	10a <_strtod_r+0x10a>
  28:	0080      	lsls	r0, r0, #2
  2a:	4902      	ldr	r1, [pc, #8]	@ (34 <_strtod_r+0x34>)
  2c:	1840      	adds	r0, r0, r1
  2e:	6800      	ldr	r0, [r0, #0]
  30:	4687      	mov	pc, r0
  32:	0000      	.short	0x0000
  34:	00000038 	.word	0x00000038
  38:	000002fc 	.word	0x000002fc
  3c:	0000010a 	.word	0x0000010a
  40:	0000010a 	.word	0x0000010a
  44:	0000010a 	.word	0x0000010a
  48:	0000010a 	.word	0x0000010a
  4c:	0000010a 	.word	0x0000010a
  50:	0000010a 	.word	0x0000010a
  54:	0000010a 	.word	0x0000010a
  58:	0000010a 	.word	0x0000010a
  5c:	00000102 	.word	0x00000102
  60:	00000102 	.word	0x00000102
  64:	00000102 	.word	0x00000102
  68:	00000102 	.word	0x00000102
  6c:	00000102 	.word	0x00000102
  70:	0000010a 	.word	0x0000010a
  74:	0000010a 	.word	0x0000010a
  78:	0000010a 	.word	0x0000010a
  7c:	0000010a 	.word	0x0000010a
  80:	0000010a 	.word	0x0000010a
  84:	0000010a 	.word	0x0000010a
  88:	0000010a 	.word	0x0000010a
  8c:	0000010a 	.word	0x0000010a
  90:	0000010a 	.word	0x0000010a
  94:	0000010a 	.word	0x0000010a
  98:	0000010a 	.word	0x0000010a
  9c:	0000010a 	.word	0x0000010a
  a0:	0000010a 	.word	0x0000010a
  a4:	0000010a 	.word	0x0000010a
  a8:	0000010a 	.word	0x0000010a
  ac:	0000010a 	.word	0x0000010a
  b0:	0000010a 	.word	0x0000010a
  b4:	0000010a 	.word	0x0000010a
  b8:	00000102 	.word	0x00000102
  bc:	0000010a 	.word	0x0000010a
  c0:	0000010a 	.word	0x0000010a
  c4:	0000010a 	.word	0x0000010a
  c8:	0000010a 	.word	0x0000010a
  cc:	0000010a 	.word	0x0000010a
  d0:	0000010a 	.word	0x0000010a
  d4:	0000010a 	.word	0x0000010a
  d8:	0000010a 	.word	0x0000010a
  dc:	0000010a 	.word	0x0000010a
  e0:	0000010a 	.word	0x0000010a
  e4:	000000f4 	.word	0x000000f4
  e8:	0000010a 	.word	0x0000010a
  ec:	000000f0 	.word	0x000000f0
  f0:	2301      	movs	r3, #1
  f2:	9308      	str	r3, [sp, #32]
  f4:	980a      	ldr	r0, [sp, #40]	@ 0x28
  f6:	3001      	adds	r0, #1
  f8:	900a      	str	r0, [sp, #40]	@ 0x28
  fa:	7800      	ldrb	r0, [r0, #0]
  fc:	2800      	cmp	r0, #0
  fe:	d104      	bne.n	10a <_strtod_r+0x10a>
 100:	e0fc      	b.n	2fc <_strtod_r+0x2fc>
 102:	990a      	ldr	r1, [sp, #40]	@ 0x28
 104:	3101      	adds	r1, #1
 106:	910a      	str	r1, [sp, #40]	@ 0x28
 108:	e78a      	b.n	20 <_strtod_r+0x20>
 10a:	9b0a      	ldr	r3, [sp, #40]	@ 0x28
 10c:	781b      	ldrb	r3, [r3, #0]
 10e:	2b30      	cmp	r3, #48	@ 0x30
 110:	d113      	bne.n	13a <_strtod_r+0x13a>
 112:	2001      	movs	r0, #1
 114:	4684      	mov	ip, r0
 116:	990a      	ldr	r1, [sp, #40]	@ 0x28
 118:	3101      	adds	r1, #1
 11a:	910a      	str	r1, [sp, #40]	@ 0x28
 11c:	780b      	ldrb	r3, [r1, #0]
 11e:	2b30      	cmp	r3, #48	@ 0x30
 120:	d105      	bne.n	12e <_strtod_r+0x12e>
 122:	980a      	ldr	r0, [sp, #40]	@ 0x28
 124:	3001      	adds	r0, #1
 126:	900a      	str	r0, [sp, #40]	@ 0x28
 128:	7801      	ldrb	r1, [r0, #0]
 12a:	2930      	cmp	r1, #48	@ 0x30
 12c:	d0f9      	beq.n	122 <_strtod_r+0x122>
 12e:	9b0a      	ldr	r3, [sp, #40]	@ 0x28
 130:	7818      	ldrb	r0, [r3, #0]
 132:	2800      	cmp	r0, #0
 134:	d101      	bne.n	13a <_strtod_r+0x13a>
 136:	f000 fce8 	bl	b0a <_strtod_r+0xb0a>
 13a:	980a      	ldr	r0, [sp, #40]	@ 0x28
 13c:	900b      	str	r0, [sp, #44]	@ 0x2c
 13e:	2100      	movs	r1, #0
 140:	4689      	mov	r9, r1
 142:	2300      	movs	r3, #0
 144:	930e      	str	r3, [sp, #56]	@ 0x38
 146:	4698      	mov	r8, r3
 148:	469a      	mov	sl, r3
 14a:	7801      	ldrb	r1, [r0, #0]
 14c:	e01a      	b.n	184 <_strtod_r+0x184>
 14e:	4650      	mov	r0, sl
 150:	2808      	cmp	r0, #8
 152:	dc07      	bgt.n	164 <_strtod_r+0x164>
 154:	9b0e      	ldr	r3, [sp, #56]	@ 0x38
 156:	0098      	lsls	r0, r3, #2
 158:	18c0      	adds	r0, r0, r3
 15a:	0040      	lsls	r0, r0, #1
 15c:	1840      	adds	r0, r0, r1
 15e:	3830      	subs	r0, #48	@ 0x30
 160:	900e      	str	r0, [sp, #56]	@ 0x38
 162:	e009      	b.n	178 <_strtod_r+0x178>
 164:	4650      	mov	r0, sl
 166:	280f      	cmp	r0, #15
 168:	dc06      	bgt.n	178 <_strtod_r+0x178>
 16a:	464b      	mov	r3, r9
 16c:	0098      	lsls	r0, r3, #2
 16e:	4448      	add	r0, r9
 170:	0040      	lsls	r0, r0, #1
 172:	1840      	adds	r0, r0, r1
 174:	3830      	subs	r0, #48	@ 0x30
 176:	4681      	mov	r9, r0
 178:	2001      	movs	r0, #1
 17a:	4482      	add	sl, r0
 17c:	990a      	ldr	r1, [sp, #40]	@ 0x28
 17e:	3101      	adds	r1, #1
 180:	910a      	str	r1, [sp, #40]	@ 0x28
 182:	7809      	ldrb	r1, [r1, #0]
 184:	292f      	cmp	r1, #47	@ 0x2f
 186:	dd01      	ble.n	18c <_strtod_r+0x18c>
 188:	2939      	cmp	r1, #57	@ 0x39
 18a:	dde0      	ble.n	14e <_strtod_r+0x14e>
 18c:	4653      	mov	r3, sl
 18e:	9307      	str	r3, [sp, #28]
 190:	292e      	cmp	r1, #46	@ 0x2e
 192:	d152      	bne.n	23a <_strtod_r+0x23a>
 194:	980a      	ldr	r0, [sp, #40]	@ 0x28
 196:	3001      	adds	r0, #1
 198:	900a      	str	r0, [sp, #40]	@ 0x28
 19a:	7801      	ldrb	r1, [r0, #0]
 19c:	2b00      	cmp	r3, #0
 19e:	d148      	bne.n	232 <_strtod_r+0x232>
 1a0:	2930      	cmp	r1, #48	@ 0x30
 1a2:	d106      	bne.n	1b2 <_strtod_r+0x1b2>
 1a4:	3201      	adds	r2, #1
 1a6:	990a      	ldr	r1, [sp, #40]	@ 0x28
 1a8:	3101      	adds	r1, #1
 1aa:	910a      	str	r1, [sp, #40]	@ 0x28
 1ac:	7809      	ldrb	r1, [r1, #0]
 1ae:	2930      	cmp	r1, #48	@ 0x30
 1b0:	d0f8      	beq.n	1a4 <_strtod_r+0x1a4>
 1b2:	1c08      	adds	r0, r1, #0
 1b4:	3831      	subs	r0, #49	@ 0x31
 1b6:	2808      	cmp	r0, #8
 1b8:	d83f      	bhi.n	23a <_strtod_r+0x23a>
 1ba:	9b0a      	ldr	r3, [sp, #40]	@ 0x28
 1bc:	930b      	str	r3, [sp, #44]	@ 0x2c
 1be:	4490      	add	r8, r2
 1c0:	2200      	movs	r2, #0
 1c2:	3201      	adds	r2, #1
 1c4:	3930      	subs	r1, #48	@ 0x30
 1c6:	9c0a      	ldr	r4, [sp, #40]	@ 0x28
 1c8:	3401      	adds	r4, #1
 1ca:	2900      	cmp	r1, #0
 1cc:	d02f      	beq.n	22e <_strtod_r+0x22e>
 1ce:	4490      	add	r8, r2
 1d0:	2a01      	cmp	r2, #1
 1d2:	dd16      	ble.n	202 <_strtod_r+0x202>
 1d4:	1e53      	subs	r3, r2, #1
 1d6:	4650      	mov	r0, sl
 1d8:	2201      	movs	r2, #1
 1da:	4492      	add	sl, r2
 1dc:	2808      	cmp	r0, #8
 1de:	dc05      	bgt.n	1ec <_strtod_r+0x1ec>
 1e0:	9a0e      	ldr	r2, [sp, #56]	@ 0x38
 1e2:	0090      	lsls	r0, r2, #2
 1e4:	1880      	adds	r0, r0, r2
 1e6:	0040      	lsls	r0, r0, #1
 1e8:	900e      	str	r0, [sp, #56]	@ 0x38
 1ea:	e007      	b.n	1fc <_strtod_r+0x1fc>
 1ec:	4650      	mov	r0, sl
 1ee:	2810      	cmp	r0, #16
 1f0:	dc04      	bgt.n	1fc <_strtod_r+0x1fc>
 1f2:	464a      	mov	r2, r9
 1f4:	0090      	lsls	r0, r2, #2
 1f6:	4448      	add	r0, r9
 1f8:	0040      	lsls	r0, r0, #1
 1fa:	4681      	mov	r9, r0
 1fc:	3b01      	subs	r3, #1
 1fe:	2b00      	cmp	r3, #0
 200:	d1e9      	bne.n	1d6 <_strtod_r+0x1d6>
 202:	4650      	mov	r0, sl
 204:	2301      	movs	r3, #1
 206:	449a      	add	sl, r3
 208:	2808      	cmp	r0, #8
 20a:	dc06      	bgt.n	21a <_strtod_r+0x21a>
 20c:	9a0e      	ldr	r2, [sp, #56]	@ 0x38
 20e:	0090      	lsls	r0, r2, #2
 210:	1880      	adds	r0, r0, r2
 212:	0040      	lsls	r0, r0, #1
 214:	1840      	adds	r0, r0, r1
 216:	900e      	str	r0, [sp, #56]	@ 0x38
 218:	e008      	b.n	22c <_strtod_r+0x22c>
 21a:	4653      	mov	r3, sl
 21c:	2b10      	cmp	r3, #16
 21e:	dc05      	bgt.n	22c <_strtod_r+0x22c>
 220:	464a      	mov	r2, r9
 222:	0090      	lsls	r0, r2, #2
 224:	4448      	add	r0, r9
 226:	0040      	lsls	r0, r0, #1
 228:	1840      	adds	r0, r0, r1
 22a:	4681      	mov	r9, r0
 22c:	2200      	movs	r2, #0
 22e:	940a      	str	r4, [sp, #40]	@ 0x28
 230:	7821      	ldrb	r1, [r4, #0]
 232:	1c08      	adds	r0, r1, #0
 234:	3830      	subs	r0, #48	@ 0x30
 236:	2809      	cmp	r0, #9
 238:	d9c3      	bls.n	1c2 <_strtod_r+0x1c2>
 23a:	2300      	movs	r3, #0
 23c:	9309      	str	r3, [sp, #36]	@ 0x24
 23e:	2965      	cmp	r1, #101	@ 0x65
 240:	d001      	beq.n	246 <_strtod_r+0x246>
 242:	2945      	cmp	r1, #69	@ 0x45
 244:	d14e      	bne.n	2e4 <_strtod_r+0x2e4>
 246:	4650      	mov	r0, sl
 248:	2800      	cmp	r0, #0
 24a:	d104      	bne.n	256 <_strtod_r+0x256>
 24c:	2a00      	cmp	r2, #0
 24e:	d102      	bne.n	256 <_strtod_r+0x256>
 250:	4661      	mov	r1, ip
 252:	2900      	cmp	r1, #0
 254:	d052      	beq.n	2fc <_strtod_r+0x2fc>
 256:	9d0a      	ldr	r5, [sp, #40]	@ 0x28
 258:	2400      	movs	r4, #0
 25a:	1c2b      	adds	r3, r5, #0
 25c:	3301      	adds	r3, #1
 25e:	930a      	str	r3, [sp, #40]	@ 0x28
 260:	7819      	ldrb	r1, [r3, #0]
 262:	292b      	cmp	r1, #43	@ 0x2b
 264:	d002      	beq.n	26c <_strtod_r+0x26c>
 266:	292d      	cmp	r1, #45	@ 0x2d
 268:	d104      	bne.n	274 <_strtod_r+0x274>
 26a:	2401      	movs	r4, #1
 26c:	980a      	ldr	r0, [sp, #40]	@ 0x28
 26e:	3001      	adds	r0, #1
 270:	900a      	str	r0, [sp, #40]	@ 0x28
 272:	7801      	ldrb	r1, [r0, #0]
 274:	1c08      	adds	r0, r1, #0
 276:	3830      	subs	r0, #48	@ 0x30
 278:	2809      	cmp	r0, #9
 27a:	d832      	bhi.n	2e2 <_strtod_r+0x2e2>
 27c:	2930      	cmp	r1, #48	@ 0x30
 27e:	d105      	bne.n	28c <_strtod_r+0x28c>
 280:	990a      	ldr	r1, [sp, #40]	@ 0x28
 282:	3101      	adds	r1, #1
 284:	910a      	str	r1, [sp, #40]	@ 0x28
 286:	7809      	ldrb	r1, [r1, #0]
 288:	2930      	cmp	r1, #48	@ 0x30
 28a:	d0f9      	beq.n	280 <_strtod_r+0x280>
 28c:	1c08      	adds	r0, r1, #0
 28e:	3831      	subs	r0, #49	@ 0x31
 290:	2808      	cmp	r0, #8
 292:	d823      	bhi.n	2dc <_strtod_r+0x2dc>
 294:	3930      	subs	r1, #48	@ 0x30
 296:	9109      	str	r1, [sp, #36]	@ 0x24
 298:	9b0a      	ldr	r3, [sp, #40]	@ 0x28
 29a:	9319      	str	r3, [sp, #100]	@ 0x64
 29c:	1c18      	adds	r0, r3, #0
 29e:	e007      	b.n	2b0 <_strtod_r+0x2b0>
 2a0:	9b09      	ldr	r3, [sp, #36]	@ 0x24
 2a2:	0098      	lsls	r0, r3, #2
 2a4:	18c0      	adds	r0, r0, r3
 2a6:	0040      	lsls	r0, r0, #1
 2a8:	1840      	adds	r0, r0, r1
 2aa:	3830      	subs	r0, #48	@ 0x30
 2ac:	9009      	str	r0, [sp, #36]	@ 0x24
 2ae:	980a      	ldr	r0, [sp, #40]	@ 0x28
 2b0:	3001      	adds	r0, #1
 2b2:	900a      	str	r0, [sp, #40]	@ 0x28
 2b4:	7801      	ldrb	r1, [r0, #0]
 2b6:	292f      	cmp	r1, #47	@ 0x2f
 2b8:	dd01      	ble.n	2be <_strtod_r+0x2be>
 2ba:	2939      	cmp	r1, #57	@ 0x39
 2bc:	ddf0      	ble.n	2a0 <_strtod_r+0x2a0>
 2be:	990a      	ldr	r1, [sp, #40]	@ 0x28
 2c0:	9b19      	ldr	r3, [sp, #100]	@ 0x64
 2c2:	1ac8      	subs	r0, r1, r3
 2c4:	2808      	cmp	r0, #8
 2c6:	dd01      	ble.n	2cc <_strtod_r+0x2cc>
 2c8:	4803      	ldr	r0, [pc, #12]	@ (2d8 <_strtod_r+0x2d8>)
 2ca:	9009      	str	r0, [sp, #36]	@ 0x24
 2cc:	2c00      	cmp	r4, #0
 2ce:	d009      	beq.n	2e4 <_strtod_r+0x2e4>
 2d0:	9909      	ldr	r1, [sp, #36]	@ 0x24
 2d2:	4249      	negs	r1, r1
 2d4:	9109      	str	r1, [sp, #36]	@ 0x24
 2d6:	e005      	b.n	2e4 <_strtod_r+0x2e4>
 2d8:	0098967f 	.word	0x0098967f
 2dc:	2300      	movs	r3, #0
 2de:	9309      	str	r3, [sp, #36]	@ 0x24
 2e0:	e000      	b.n	2e4 <_strtod_r+0x2e4>
 2e2:	950a      	str	r5, [sp, #40]	@ 0x28
 2e4:	4650      	mov	r0, sl
 2e6:	2800      	cmp	r0, #0
 2e8:	d10b      	bne.n	302 <_strtod_r+0x302>
 2ea:	2a00      	cmp	r2, #0
 2ec:	d001      	beq.n	2f2 <_strtod_r+0x2f2>
 2ee:	f000 fc0c 	bl	b0a <_strtod_r+0xb0a>
 2f2:	4661      	mov	r1, ip
 2f4:	2900      	cmp	r1, #0
 2f6:	d001      	beq.n	2fc <_strtod_r+0x2fc>
 2f8:	f000 fc07 	bl	b0a <_strtod_r+0xb0a>
 2fc:	950a      	str	r5, [sp, #40]	@ 0x28
 2fe:	f000 fc04 	bl	b0a <_strtod_r+0xb0a>
 302:	9a09      	ldr	r2, [sp, #36]	@ 0x24
 304:	4643      	mov	r3, r8
 306:	1ad2      	subs	r2, r2, r3
 308:	9209      	str	r2, [sp, #36]	@ 0x24
 30a:	4690      	mov	r8, r2
 30c:	9807      	ldr	r0, [sp, #28]
 30e:	2800      	cmp	r0, #0
 310:	d101      	bne.n	316 <_strtod_r+0x316>
 312:	4651      	mov	r1, sl
 314:	9107      	str	r1, [sp, #28]
 316:	4652      	mov	r2, sl
 318:	9206      	str	r2, [sp, #24]
 31a:	2a10      	cmp	r2, #16
 31c:	dd01      	ble.n	322 <_strtod_r+0x322>
 31e:	2310      	movs	r3, #16
 320:	9306      	str	r3, [sp, #24]
 322:	980e      	ldr	r0, [sp, #56]	@ 0x38
 324:	f7ff fffe 	bl	0 <__floatsidf>
 328:	1c0d      	adds	r5, r1, #0
 32a:	1c04      	adds	r4, r0, #0
 32c:	980e      	ldr	r0, [sp, #56]	@ 0x38
 32e:	2800      	cmp	r0, #0
 330:	da07      	bge.n	342 <_strtod_r+0x342>
 332:	4b23      	ldr	r3, [pc, #140]	@ (3c0 <_strtod_r+0x3c0>)
 334:	4a21      	ldr	r2, [pc, #132]	@ (3bc <_strtod_r+0x3bc>)
 336:	1c29      	adds	r1, r5, #0
 338:	1c20      	adds	r0, r4, #0
 33a:	f7ff fffe 	bl	0 <__adddf3>
 33e:	1c0d      	adds	r5, r1, #0
 340:	1c04      	adds	r4, r0, #0
 342:	1c2f      	adds	r7, r5, #0
 344:	1c26      	adds	r6, r4, #0
 346:	9906      	ldr	r1, [sp, #24]
 348:	2909      	cmp	r1, #9
 34a:	dd21      	ble.n	390 <_strtod_r+0x390>
 34c:	481d      	ldr	r0, [pc, #116]	@ (3c4 <_strtod_r+0x3c4>)
 34e:	3909      	subs	r1, #9
 350:	00c9      	lsls	r1, r1, #3
 352:	1809      	adds	r1, r1, r0
 354:	6808      	ldr	r0, [r1, #0]
 356:	6849      	ldr	r1, [r1, #4]
 358:	1c2b      	adds	r3, r5, #0
 35a:	1c22      	adds	r2, r4, #0
 35c:	f7ff fffe 	bl	0 <__muldf3>
 360:	1c0f      	adds	r7, r1, #0
 362:	1c06      	adds	r6, r0, #0
 364:	4648      	mov	r0, r9
 366:	f7ff fffe 	bl	0 <__floatsidf>
 36a:	1c0d      	adds	r5, r1, #0
 36c:	1c04      	adds	r4, r0, #0
 36e:	464a      	mov	r2, r9
 370:	2a00      	cmp	r2, #0
 372:	da05      	bge.n	380 <_strtod_r+0x380>
 374:	4b12      	ldr	r3, [pc, #72]	@ (3c0 <_strtod_r+0x3c0>)
 376:	4a11      	ldr	r2, [pc, #68]	@ (3bc <_strtod_r+0x3bc>)
 378:	f7ff fffe 	bl	0 <__adddf3>
 37c:	1c0d      	adds	r5, r1, #0
 37e:	1c04      	adds	r4, r0, #0
 380:	1c39      	adds	r1, r7, #0
 382:	1c30      	adds	r0, r6, #0
 384:	1c2b      	adds	r3, r5, #0
 386:	1c22      	adds	r2, r4, #0
 388:	f7ff fffe 	bl	0 <__adddf3>
 38c:	1c0f      	adds	r7, r1, #0
 38e:	1c06      	adds	r6, r0, #0
 390:	2300      	movs	r3, #0
 392:	9313      	str	r3, [sp, #76]	@ 0x4c
 394:	4650      	mov	r0, sl
 396:	280f      	cmp	r0, #15
 398:	dc4c      	bgt.n	434 <_strtod_r+0x434>
 39a:	9909      	ldr	r1, [sp, #36]	@ 0x24
 39c:	2900      	cmp	r1, #0
 39e:	d100      	bne.n	3a2 <_strtod_r+0x3a2>
 3a0:	e3b3      	b.n	b0a <_strtod_r+0xb0a>
 3a2:	2900      	cmp	r1, #0
 3a4:	dd32      	ble.n	40c <_strtod_r+0x40c>
 3a6:	2916      	cmp	r1, #22
 3a8:	dc0e      	bgt.n	3c8 <_strtod_r+0x3c8>
 3aa:	4906      	ldr	r1, [pc, #24]	@ (3c4 <_strtod_r+0x3c4>)
 3ac:	9a09      	ldr	r2, [sp, #36]	@ 0x24
 3ae:	00d0      	lsls	r0, r2, #3
 3b0:	1840      	adds	r0, r0, r1
 3b2:	6841      	ldr	r1, [r0, #4]
 3b4:	6800      	ldr	r0, [r0, #0]
 3b6:	1c3b      	adds	r3, r7, #0
 3b8:	1c32      	adds	r2, r6, #0
 3ba:	e01f      	b.n	3fc <_strtod_r+0x3fc>
 3bc:	41f00000 	.word	0x41f00000
	...
 3c8:	200f      	movs	r0, #15
 3ca:	4651      	mov	r1, sl
 3cc:	1a43      	subs	r3, r0, r1
 3ce:	1c18      	adds	r0, r3, #0
 3d0:	3016      	adds	r0, #22
 3d2:	9a09      	ldr	r2, [sp, #36]	@ 0x24
 3d4:	4282      	cmp	r2, r0
 3d6:	dc2d      	bgt.n	434 <_strtod_r+0x434>
 3d8:	1ad2      	subs	r2, r2, r3
 3da:	9209      	str	r2, [sp, #36]	@ 0x24
 3dc:	4c0a      	ldr	r4, [pc, #40]	@ (408 <_strtod_r+0x408>)
 3de:	00d8      	lsls	r0, r3, #3
 3e0:	1900      	adds	r0, r0, r4
 3e2:	6841      	ldr	r1, [r0, #4]
 3e4:	6800      	ldr	r0, [r0, #0]
 3e6:	1c3b      	adds	r3, r7, #0
 3e8:	1c32      	adds	r2, r6, #0
 3ea:	f7ff fffe 	bl	0 <__muldf3>
 3ee:	1c0b      	adds	r3, r1, #0
 3f0:	1c02      	adds	r2, r0, #0
 3f2:	9909      	ldr	r1, [sp, #36]	@ 0x24
 3f4:	00c8      	lsls	r0, r1, #3
 3f6:	1900      	adds	r0, r0, r4
 3f8:	6841      	ldr	r1, [r0, #4]
 3fa:	6800      	ldr	r0, [r0, #0]
 3fc:	f7ff fffe 	bl	0 <__muldf3>
 400:	1c0f      	adds	r7, r1, #0
 402:	1c06      	adds	r6, r0, #0
 404:	e381      	b.n	b0a <_strtod_r+0xb0a>
 406:	0000      	.short	0x0000
 408:	00000000 	.word	0x00000000
 40c:	2016      	movs	r0, #22
 40e:	4240      	negs	r0, r0
 410:	9a09      	ldr	r2, [sp, #36]	@ 0x24
 412:	4282      	cmp	r2, r0
 414:	db0e      	blt.n	434 <_strtod_r+0x434>
 416:	4806      	ldr	r0, [pc, #24]	@ (430 <_strtod_r+0x430>)
 418:	00d1      	lsls	r1, r2, #3
 41a:	1a40      	subs	r0, r0, r1
 41c:	6802      	ldr	r2, [r0, #0]
 41e:	6843      	ldr	r3, [r0, #4]
 420:	1c39      	adds	r1, r7, #0
 422:	1c30      	adds	r0, r6, #0
 424:	f7ff fffe 	bl	0 <__divdf3>
 428:	1c0f      	adds	r7, r1, #0
 42a:	1c06      	adds	r6, r0, #0
 42c:	e36d      	b.n	b0a <_strtod_r+0xb0a>
 42e:	0000      	.short	0x0000
 430:	00000000 	.word	0x00000000
 434:	4653      	mov	r3, sl
 436:	9906      	ldr	r1, [sp, #24]
 438:	1a58      	subs	r0, r3, r1
 43a:	4480      	add	r8, r0
 43c:	4642      	mov	r2, r8
 43e:	2a00      	cmp	r2, #0
 440:	dd78      	ble.n	534 <_strtod_r+0x534>
 442:	230f      	movs	r3, #15
 444:	4013      	ands	r3, r2
 446:	2b00      	cmp	r3, #0
 448:	d00a      	beq.n	460 <_strtod_r+0x460>
 44a:	4911      	ldr	r1, [pc, #68]	@ (490 <_strtod_r+0x490>)
 44c:	00d8      	lsls	r0, r3, #3
 44e:	1840      	adds	r0, r0, r1
 450:	6841      	ldr	r1, [r0, #4]
 452:	6800      	ldr	r0, [r0, #0]
 454:	1c3b      	adds	r3, r7, #0
 456:	1c32      	adds	r2, r6, #0
 458:	f7ff fffe 	bl	0 <__muldf3>
 45c:	1c0f      	adds	r7, r1, #0
 45e:	1c06      	adds	r6, r0, #0
 460:	2010      	movs	r0, #16
 462:	4240      	negs	r0, r0
 464:	4643      	mov	r3, r8
 466:	4003      	ands	r3, r0
 468:	4698      	mov	r8, r3
 46a:	2b00      	cmp	r3, #0
 46c:	d100      	bne.n	470 <_strtod_r+0x470>
 46e:	e0e6      	b.n	63e <_strtod_r+0x63e>
 470:	209a      	movs	r0, #154	@ 0x9a
 472:	0040      	lsls	r0, r0, #1
 474:	4580      	cmp	r8, r0
 476:	dd0f      	ble.n	498 <_strtod_r+0x498>
 478:	2022      	movs	r0, #34	@ 0x22
 47a:	9903      	ldr	r1, [sp, #12]
 47c:	6008      	str	r0, [r1, #0]
 47e:	4805      	ldr	r0, [pc, #20]	@ (494 <_strtod_r+0x494>)
 480:	6806      	ldr	r6, [r0, #0]
 482:	6847      	ldr	r7, [r0, #4]
 484:	9a13      	ldr	r2, [sp, #76]	@ 0x4c
 486:	2a00      	cmp	r2, #0
 488:	d000      	beq.n	48c <_strtod_r+0x48c>
 48a:	e32a      	b.n	ae2 <_strtod_r+0xae2>
 48c:	e33d      	b.n	b0a <_strtod_r+0xb0a>
	...
 496:	0000      	.short	0x0000
 498:	4643      	mov	r3, r8
 49a:	111b      	asrs	r3, r3, #4
 49c:	4698      	mov	r8, r3
 49e:	2b00      	cmp	r3, #0
 4a0:	d100      	bne.n	4a4 <_strtod_r+0x4a4>
 4a2:	e0cc      	b.n	63e <_strtod_r+0x63e>
 4a4:	2000      	movs	r0, #0
 4a6:	4681      	mov	r9, r0
 4a8:	4d1a      	ldr	r5, [pc, #104]	@ (514 <_strtod_r+0x514>)
 4aa:	2b01      	cmp	r3, #1
 4ac:	dd15      	ble.n	4da <_strtod_r+0x4da>
 4ae:	1c2c      	adds	r4, r5, #0
 4b0:	2001      	movs	r0, #1
 4b2:	4641      	mov	r1, r8
 4b4:	4008      	ands	r0, r1
 4b6:	2800      	cmp	r0, #0
 4b8:	d007      	beq.n	4ca <_strtod_r+0x4ca>
 4ba:	6820      	ldr	r0, [r4, #0]
 4bc:	6861      	ldr	r1, [r4, #4]
 4be:	1c3b      	adds	r3, r7, #0
 4c0:	1c32      	adds	r2, r6, #0
 4c2:	f7ff fffe 	bl	0 <__muldf3>
 4c6:	1c0f      	adds	r7, r1, #0
 4c8:	1c06      	adds	r6, r0, #0
 4ca:	3408      	adds	r4, #8
 4cc:	2201      	movs	r2, #1
 4ce:	4491      	add	r9, r2
 4d0:	4643      	mov	r3, r8
 4d2:	105b      	asrs	r3, r3, #1
 4d4:	4698      	mov	r8, r3
 4d6:	2b01      	cmp	r3, #1
 4d8:	dcea      	bgt.n	4b0 <_strtod_r+0x4b0>
 4da:	480f      	ldr	r0, [pc, #60]	@ (518 <_strtod_r+0x518>)
 4dc:	1836      	adds	r6, r6, r0
 4de:	4649      	mov	r1, r9
 4e0:	00c8      	lsls	r0, r1, #3
 4e2:	1940      	adds	r0, r0, r5
 4e4:	6841      	ldr	r1, [r0, #4]
 4e6:	6800      	ldr	r0, [r0, #0]
 4e8:	1c3b      	adds	r3, r7, #0
 4ea:	1c32      	adds	r2, r6, #0
 4ec:	f7ff fffe 	bl	0 <__muldf3>
 4f0:	1c0f      	adds	r7, r1, #0
 4f2:	1c06      	adds	r6, r0, #0
 4f4:	4a09      	ldr	r2, [pc, #36]	@ (51c <_strtod_r+0x51c>)
 4f6:	4691      	mov	r9, r2
 4f8:	464b      	mov	r3, r9
 4fa:	4033      	ands	r3, r6
 4fc:	4699      	mov	r9, r3
 4fe:	4808      	ldr	r0, [pc, #32]	@ (520 <_strtod_r+0x520>)
 500:	4581      	cmp	r9, r0
 502:	d8b9      	bhi.n	478 <_strtod_r+0x478>
 504:	4807      	ldr	r0, [pc, #28]	@ (524 <_strtod_r+0x524>)
 506:	4581      	cmp	r9, r0
 508:	d910      	bls.n	52c <_strtod_r+0x52c>
 50a:	4e07      	ldr	r6, [pc, #28]	@ (528 <_strtod_r+0x528>)
 50c:	2701      	movs	r7, #1
 50e:	427f      	negs	r7, r7
 510:	e095      	b.n	63e <_strtod_r+0x63e>
	...
 51a:	fcb0      	.short	0xfcb0
 51c:	7ff00000 	.word	0x7ff00000
 520:	7ca00000 	.word	0x7ca00000
 524:	7c900000 	.word	0x7c900000
 528:	7fefffff 	.word	0x7fefffff
 52c:	20d4      	movs	r0, #212	@ 0xd4
 52e:	0480      	lsls	r0, r0, #18
 530:	1836      	adds	r6, r6, r0
 532:	e084      	b.n	63e <_strtod_r+0x63e>
 534:	4641      	mov	r1, r8
 536:	2900      	cmp	r1, #0
 538:	db00      	blt.n	53c <_strtod_r+0x53c>
 53a:	e080      	b.n	63e <_strtod_r+0x63e>
 53c:	4249      	negs	r1, r1
 53e:	4688      	mov	r8, r1
 540:	230f      	movs	r3, #15
 542:	400b      	ands	r3, r1
 544:	2b00      	cmp	r3, #0
 546:	d00a      	beq.n	55e <_strtod_r+0x55e>
 548:	4932      	ldr	r1, [pc, #200]	@ (614 <_strtod_r+0x614>)
 54a:	00d8      	lsls	r0, r3, #3
 54c:	1840      	adds	r0, r0, r1
 54e:	6802      	ldr	r2, [r0, #0]
 550:	6843      	ldr	r3, [r0, #4]
 552:	1c39      	adds	r1, r7, #0
 554:	1c30      	adds	r0, r6, #0
 556:	f7ff fffe 	bl	0 <__divdf3>
 55a:	1c0f      	adds	r7, r1, #0
 55c:	1c06      	adds	r6, r0, #0
 55e:	2010      	movs	r0, #16
 560:	4240      	negs	r0, r0
 562:	4642      	mov	r2, r8
 564:	4002      	ands	r2, r0
 566:	2a00      	cmp	r2, #0
 568:	d069      	beq.n	63e <_strtod_r+0x63e>
 56a:	1112      	asrs	r2, r2, #4
 56c:	4690      	mov	r8, r2
 56e:	2a1f      	cmp	r2, #31
 570:	dc45      	bgt.n	5fe <_strtod_r+0x5fe>
 572:	2300      	movs	r3, #0
 574:	4699      	mov	r9, r3
 576:	2a01      	cmp	r2, #1
 578:	dd15      	ble.n	5a6 <_strtod_r+0x5a6>
 57a:	4c27      	ldr	r4, [pc, #156]	@ (618 <_strtod_r+0x618>)
 57c:	2001      	movs	r0, #1
 57e:	4641      	mov	r1, r8
 580:	4008      	ands	r0, r1
 582:	2800      	cmp	r0, #0
 584:	d007      	beq.n	596 <_strtod_r+0x596>
 586:	6820      	ldr	r0, [r4, #0]
 588:	6861      	ldr	r1, [r4, #4]
 58a:	1c3b      	adds	r3, r7, #0
 58c:	1c32      	adds	r2, r6, #0
 58e:	f7ff fffe 	bl	0 <__muldf3>
 592:	1c0f      	adds	r7, r1, #0
 594:	1c06      	adds	r6, r0, #0
 596:	3408      	adds	r4, #8
 598:	2201      	movs	r2, #1
 59a:	4491      	add	r9, r2
 59c:	4643      	mov	r3, r8
 59e:	105b      	asrs	r3, r3, #1
 5a0:	4698      	mov	r8, r3
 5a2:	2b01      	cmp	r3, #1
 5a4:	dcea      	bgt.n	57c <_strtod_r+0x57c>
 5a6:	1c3d      	adds	r5, r7, #0
 5a8:	1c34      	adds	r4, r6, #0
 5aa:	4649      	mov	r1, r9
 5ac:	00c8      	lsls	r0, r1, #3
 5ae:	4a1a      	ldr	r2, [pc, #104]	@ (618 <_strtod_r+0x618>)
 5b0:	1880      	adds	r0, r0, r2
 5b2:	6801      	ldr	r1, [r0, #0]
 5b4:	6842      	ldr	r2, [r0, #4]
 5b6:	9116      	str	r1, [sp, #88]	@ 0x58
 5b8:	9217      	str	r2, [sp, #92]	@ 0x5c
 5ba:	1c08      	adds	r0, r1, #0
 5bc:	1c11      	adds	r1, r2, #0
 5be:	1c2b      	adds	r3, r5, #0
 5c0:	1c22      	adds	r2, r4, #0
 5c2:	f7ff fffe 	bl	0 <__muldf3>
 5c6:	1c0f      	adds	r7, r1, #0
 5c8:	1c06      	adds	r6, r0, #0
 5ca:	4a14      	ldr	r2, [pc, #80]	@ (61c <_strtod_r+0x61c>)
 5cc:	4b14      	ldr	r3, [pc, #80]	@ (620 <_strtod_r+0x620>)
 5ce:	f7ff fffe 	bl	0 <__eqdf2>
 5d2:	2800      	cmp	r0, #0
 5d4:	d133      	bne.n	63e <_strtod_r+0x63e>
 5d6:	1c29      	adds	r1, r5, #0
 5d8:	1c20      	adds	r0, r4, #0
 5da:	1c2b      	adds	r3, r5, #0
 5dc:	1c22      	adds	r2, r4, #0
 5de:	f7ff fffe 	bl	0 <__adddf3>
 5e2:	1c0b      	adds	r3, r1, #0
 5e4:	1c02      	adds	r2, r0, #0
 5e6:	9816      	ldr	r0, [sp, #88]	@ 0x58
 5e8:	9917      	ldr	r1, [sp, #92]	@ 0x5c
 5ea:	f7ff fffe 	bl	0 <__muldf3>
 5ee:	1c0f      	adds	r7, r1, #0
 5f0:	1c06      	adds	r6, r0, #0
 5f2:	4a0a      	ldr	r2, [pc, #40]	@ (61c <_strtod_r+0x61c>)
 5f4:	4b0a      	ldr	r3, [pc, #40]	@ (620 <_strtod_r+0x620>)
 5f6:	f7ff fffe 	bl	0 <__eqdf2>
 5fa:	2800      	cmp	r0, #0
 5fc:	d11d      	bne.n	63a <_strtod_r+0x63a>
 5fe:	2600      	movs	r6, #0
 600:	2700      	movs	r7, #0
 602:	2022      	movs	r0, #34	@ 0x22
 604:	9a03      	ldr	r2, [sp, #12]
 606:	6010      	str	r0, [r2, #0]
 608:	9b13      	ldr	r3, [sp, #76]	@ 0x4c
 60a:	2b00      	cmp	r3, #0
 60c:	d000      	beq.n	610 <_strtod_r+0x610>
 60e:	e268      	b.n	ae2 <_strtod_r+0xae2>
 610:	e27b      	b.n	b0a <_strtod_r+0xb0a>
	...
 622:	0000      	.short	0x0000
 624:	1c39      	adds	r1, r7, #0
 626:	1c30      	adds	r0, r6, #0
 628:	f7ff fffe 	bl	0 <_ulp>
 62c:	1c3b      	adds	r3, r7, #0
 62e:	1c32      	adds	r2, r6, #0
 630:	f7ff fffe 	bl	0 <__adddf3>
 634:	1c0f      	adds	r7, r1, #0
 636:	1c06      	adds	r6, r0, #0
 638:	e253      	b.n	ae2 <_strtod_r+0xae2>
 63a:	2600      	movs	r6, #0
 63c:	2701      	movs	r7, #1
 63e:	980e      	ldr	r0, [sp, #56]	@ 0x38
 640:	9000      	str	r0, [sp, #0]
 642:	9803      	ldr	r0, [sp, #12]
 644:	990b      	ldr	r1, [sp, #44]	@ 0x2c
 646:	9a07      	ldr	r2, [sp, #28]
 648:	4653      	mov	r3, sl
 64a:	f7ff fffe 	bl	0 <_s2b>
 64e:	9013      	str	r0, [sp, #76]	@ 0x4c
 650:	4669      	mov	r1, sp
 652:	3108      	adds	r1, #8
 654:	9118      	str	r1, [sp, #96]	@ 0x60
 656:	e19a      	b.n	98e <_strtod_r+0x98e>
 658:	9803      	ldr	r0, [sp, #12]
 65a:	9915      	ldr	r1, [sp, #84]	@ 0x54
 65c:	2201      	movs	r2, #1
 65e:	f7ff fffe 	bl	0 <_lshift>
 662:	9015      	str	r0, [sp, #84]	@ 0x54
 664:	9914      	ldr	r1, [sp, #80]	@ 0x50
 666:	f7ff fffe 	bl	0 <__mcmp>
 66a:	2800      	cmp	r0, #0
 66c:	dc20      	bgt.n	6b0 <_strtod_r+0x6b0>
 66e:	e238      	b.n	ae2 <_strtod_r+0xae2>
 670:	2b00      	cmp	r3, #0
 672:	d14d      	bne.n	710 <_strtod_r+0x710>
 674:	464a      	mov	r2, r9
 676:	2a00      	cmp	r2, #0
 678:	d014      	beq.n	6a4 <_strtod_r+0x6a4>
 67a:	4908      	ldr	r1, [pc, #32]	@ (69c <_strtod_r+0x69c>)
 67c:	1c32      	adds	r2, r6, #0
 67e:	1c10      	adds	r0, r2, #0
 680:	4008      	ands	r0, r1
 682:	4288      	cmp	r0, r1
 684:	d124      	bne.n	6d0 <_strtod_r+0x6d0>
 686:	2001      	movs	r0, #1
 688:	4240      	negs	r0, r0
 68a:	4287      	cmp	r7, r0
 68c:	d120      	bne.n	6d0 <_strtod_r+0x6d0>
 68e:	4804      	ldr	r0, [pc, #16]	@ (6a0 <_strtod_r+0x6a0>)
 690:	4002      	ands	r2, r0
 692:	2380      	movs	r3, #128	@ 0x80
 694:	035b      	lsls	r3, r3, #13
 696:	18d6      	adds	r6, r2, r3
 698:	2700      	movs	r7, #0
 69a:	e222      	b.n	ae2 <_strtod_r+0xae2>
 69c:	000fffff 	.word	0x000fffff
 6a0:	7ff00000 	.word	0x7ff00000
 6a4:	4807      	ldr	r0, [pc, #28]	@ (6c4 <_strtod_r+0x6c4>)
 6a6:	4030      	ands	r0, r6
 6a8:	2800      	cmp	r0, #0
 6aa:	d111      	bne.n	6d0 <_strtod_r+0x6d0>
 6ac:	2f00      	cmp	r7, #0
 6ae:	d10f      	bne.n	6d0 <_strtod_r+0x6d0>
 6b0:	4805      	ldr	r0, [pc, #20]	@ (6c8 <_strtod_r+0x6c8>)
 6b2:	4030      	ands	r0, r6
 6b4:	4a05      	ldr	r2, [pc, #20]	@ (6cc <_strtod_r+0x6cc>)
 6b6:	1881      	adds	r1, r0, r2
 6b8:	4802      	ldr	r0, [pc, #8]	@ (6c4 <_strtod_r+0x6c4>)
 6ba:	1c0e      	adds	r6, r1, #0
 6bc:	4306      	orrs	r6, r0
 6be:	2701      	movs	r7, #1
 6c0:	427f      	negs	r7, r7
 6c2:	e20e      	b.n	ae2 <_strtod_r+0xae2>
 6c4:	000fffff 	.word	0x000fffff
 6c8:	7ff00000 	.word	0x7ff00000
 6cc:	fff00000 	.word	0xfff00000
 6d0:	2001      	movs	r0, #1
 6d2:	4038      	ands	r0, r7
 6d4:	2800      	cmp	r0, #0
 6d6:	d100      	bne.n	6da <_strtod_r+0x6da>
 6d8:	e203      	b.n	ae2 <_strtod_r+0xae2>
 6da:	464b      	mov	r3, r9
 6dc:	2b00      	cmp	r3, #0
 6de:	d1a1      	bne.n	624 <_strtod_r+0x624>
 6e0:	1c39      	adds	r1, r7, #0
 6e2:	1c30      	adds	r0, r6, #0
 6e4:	f7ff fffe 	bl	0 <_ulp>
 6e8:	1c0b      	adds	r3, r1, #0
 6ea:	1c02      	adds	r2, r0, #0
 6ec:	1c39      	adds	r1, r7, #0
 6ee:	1c30      	adds	r0, r6, #0
 6f0:	f7ff fffe 	bl	0 <__subdf3>
 6f4:	1c0f      	adds	r7, r1, #0
 6f6:	1c06      	adds	r6, r0, #0
 6f8:	4b04      	ldr	r3, [pc, #16]	@ (70c <_strtod_r+0x70c>)
 6fa:	4a03      	ldr	r2, [pc, #12]	@ (708 <_strtod_r+0x708>)
 6fc:	f7ff fffe 	bl	0 <__eqdf2>
 700:	2800      	cmp	r0, #0
 702:	d100      	bne.n	706 <_strtod_r+0x706>
 704:	e77b      	b.n	5fe <_strtod_r+0x5fe>
 706:	e1ec      	b.n	ae2 <_strtod_r+0xae2>
	...
 710:	9815      	ldr	r0, [sp, #84]	@ 0x54
 712:	9914      	ldr	r1, [sp, #80]	@ 0x50
 714:	f7ff fffe 	bl	0 <_ratio>
 718:	1c0d      	adds	r5, r1, #0
 71a:	1c04      	adds	r4, r0, #0
 71c:	4b07      	ldr	r3, [pc, #28]	@ (73c <_strtod_r+0x73c>)
 71e:	4a06      	ldr	r2, [pc, #24]	@ (738 <_strtod_r+0x738>)
 720:	f7ff fffe 	bl	0 <__ledf2>
 724:	2800      	cmp	r0, #0
 726:	dc4f      	bgt.n	7c8 <_strtod_r+0x7c8>
 728:	4648      	mov	r0, r9
 72a:	2800      	cmp	r0, #0
 72c:	d00c      	beq.n	748 <_strtod_r+0x748>
 72e:	4c04      	ldr	r4, [pc, #16]	@ (740 <_strtod_r+0x740>)
 730:	4d04      	ldr	r5, [pc, #16]	@ (744 <_strtod_r+0x744>)
 732:	940c      	str	r4, [sp, #48]	@ 0x30
 734:	950d      	str	r5, [sp, #52]	@ 0x34
 736:	e058      	b.n	7ea <_strtod_r+0x7ea>
 738:	40000000 	.word	0x40000000
 73c:	00000000 	.word	0x00000000
 740:	3ff00000 	.word	0x3ff00000
 744:	00000000 	.word	0x00000000
 748:	2f00      	cmp	r7, #0
 74a:	d103      	bne.n	754 <_strtod_r+0x754>
 74c:	4807      	ldr	r0, [pc, #28]	@ (76c <_strtod_r+0x76c>)
 74e:	4030      	ands	r0, r6
 750:	2800      	cmp	r0, #0
 752:	d015      	beq.n	780 <_strtod_r+0x780>
 754:	2f01      	cmp	r7, #1
 756:	d102      	bne.n	75e <_strtod_r+0x75e>
 758:	2e00      	cmp	r6, #0
 75a:	d100      	bne.n	75e <_strtod_r+0x75e>
 75c:	e74f      	b.n	5fe <_strtod_r+0x5fe>
 75e:	4c04      	ldr	r4, [pc, #16]	@ (770 <_strtod_r+0x770>)
 760:	4d04      	ldr	r5, [pc, #16]	@ (774 <_strtod_r+0x774>)
 762:	4905      	ldr	r1, [pc, #20]	@ (778 <_strtod_r+0x778>)
 764:	4a05      	ldr	r2, [pc, #20]	@ (77c <_strtod_r+0x77c>)
 766:	910c      	str	r1, [sp, #48]	@ 0x30
 768:	920d      	str	r2, [sp, #52]	@ 0x34
 76a:	e03e      	b.n	7ea <_strtod_r+0x7ea>
 76c:	000fffff 	.word	0x000fffff
 770:	3ff00000 	.word	0x3ff00000
 774:	00000000 	.word	0x00000000
 778:	bff00000 	.word	0xbff00000
 77c:	00000000 	.word	0x00000000
 780:	4b06      	ldr	r3, [pc, #24]	@ (79c <_strtod_r+0x79c>)
 782:	4a05      	ldr	r2, [pc, #20]	@ (798 <_strtod_r+0x798>)
 784:	1c29      	adds	r1, r5, #0
 786:	1c20      	adds	r0, r4, #0
 788:	f7ff fffe 	bl	0 <__ltdf2>
 78c:	2800      	cmp	r0, #0
 78e:	da0b      	bge.n	7a8 <_strtod_r+0x7a8>
 790:	4c03      	ldr	r4, [pc, #12]	@ (7a0 <_strtod_r+0x7a0>)
 792:	4d04      	ldr	r5, [pc, #16]	@ (7a4 <_strtod_r+0x7a4>)
 794:	e010      	b.n	7b8 <_strtod_r+0x7b8>
 796:	0000      	.short	0x0000
 798:	3ff00000 	.word	0x3ff00000
 79c:	00000000 	.word	0x00000000
 7a0:	3fe00000 	.word	0x3fe00000
 7a4:	00000000 	.word	0x00000000
 7a8:	4b06      	ldr	r3, [pc, #24]	@ (7c4 <_strtod_r+0x7c4>)
 7aa:	4a05      	ldr	r2, [pc, #20]	@ (7c0 <_strtod_r+0x7c0>)
 7ac:	1c29      	adds	r1, r5, #0
 7ae:	1c20      	adds	r0, r4, #0
 7b0:	f7ff fffe 	bl	0 <__muldf3>
 7b4:	1c0d      	adds	r5, r1, #0
 7b6:	1c04      	adds	r4, r0, #0
 7b8:	1c29      	adds	r1, r5, #0
 7ba:	1c20      	adds	r0, r4, #0
 7bc:	e011      	b.n	7e2 <_strtod_r+0x7e2>
 7be:	0000      	.short	0x0000
 7c0:	3fe00000 	.word	0x3fe00000
 7c4:	00000000 	.word	0x00000000
 7c8:	4b21      	ldr	r3, [pc, #132]	@ (850 <_strtod_r+0x850>)
 7ca:	4a20      	ldr	r2, [pc, #128]	@ (84c <_strtod_r+0x84c>)
 7cc:	1c29      	adds	r1, r5, #0
 7ce:	1c20      	adds	r0, r4, #0
 7d0:	f7ff fffe 	bl	0 <__muldf3>
 7d4:	1c0d      	adds	r5, r1, #0
 7d6:	1c04      	adds	r4, r0, #0
 7d8:	940c      	str	r4, [sp, #48]	@ 0x30
 7da:	950d      	str	r5, [sp, #52]	@ 0x34
 7dc:	464a      	mov	r2, r9
 7de:	2a00      	cmp	r2, #0
 7e0:	d103      	bne.n	7ea <_strtod_r+0x7ea>
 7e2:	f7ff fffe 	bl	0 <__negdf2>
 7e6:	900c      	str	r0, [sp, #48]	@ 0x30
 7e8:	910d      	str	r1, [sp, #52]	@ 0x34
 7ea:	4b1a      	ldr	r3, [pc, #104]	@ (854 <_strtod_r+0x854>)
 7ec:	4698      	mov	r8, r3
 7ee:	4640      	mov	r0, r8
 7f0:	4030      	ands	r0, r6
 7f2:	900e      	str	r0, [sp, #56]	@ 0x38
 7f4:	4818      	ldr	r0, [pc, #96]	@ (858 <_strtod_r+0x858>)
 7f6:	990e      	ldr	r1, [sp, #56]	@ 0x38
 7f8:	4281      	cmp	r1, r0
 7fa:	d139      	bne.n	870 <_strtod_r+0x870>
 7fc:	960f      	str	r6, [sp, #60]	@ 0x3c
 7fe:	9710      	str	r7, [sp, #64]	@ 0x40
 800:	4a16      	ldr	r2, [pc, #88]	@ (85c <_strtod_r+0x85c>)
 802:	18b6      	adds	r6, r6, r2
 804:	1c39      	adds	r1, r7, #0
 806:	1c30      	adds	r0, r6, #0
 808:	f7ff fffe 	bl	0 <_ulp>
 80c:	1c0b      	adds	r3, r1, #0
 80e:	1c02      	adds	r2, r0, #0
 810:	980c      	ldr	r0, [sp, #48]	@ 0x30
 812:	990d      	ldr	r1, [sp, #52]	@ 0x34
 814:	f7ff fffe 	bl	0 <__muldf3>
 818:	1c3b      	adds	r3, r7, #0
 81a:	1c32      	adds	r2, r6, #0
 81c:	f7ff fffe 	bl	0 <__adddf3>
 820:	1c0f      	adds	r7, r1, #0
 822:	1c06      	adds	r6, r0, #0
 824:	4640      	mov	r0, r8
 826:	4030      	ands	r0, r6
 828:	490d      	ldr	r1, [pc, #52]	@ (860 <_strtod_r+0x860>)
 82a:	4288      	cmp	r0, r1
 82c:	d91c      	bls.n	868 <_strtod_r+0x868>
 82e:	490d      	ldr	r1, [pc, #52]	@ (864 <_strtod_r+0x864>)
 830:	9b0f      	ldr	r3, [sp, #60]	@ 0x3c
 832:	428b      	cmp	r3, r1
 834:	d105      	bne.n	842 <_strtod_r+0x842>
 836:	2001      	movs	r0, #1
 838:	4240      	negs	r0, r0
 83a:	9a10      	ldr	r2, [sp, #64]	@ 0x40
 83c:	4282      	cmp	r2, r0
 83e:	d100      	bne.n	842 <_strtod_r+0x842>
 840:	e61a      	b.n	478 <_strtod_r+0x478>
 842:	1c0e      	adds	r6, r1, #0
 844:	2701      	movs	r7, #1
 846:	427f      	negs	r7, r7
 848:	e091      	b.n	96e <_strtod_r+0x96e>
 84a:	0000      	.short	0x0000
 84c:	3fe00000 	.word	0x3fe00000
 850:	00000000 	.word	0x00000000
 854:	7ff00000 	.word	0x7ff00000
 858:	7fe00000 	.word	0x7fe00000
 85c:	fcb00000 	.word	0xfcb00000
 860:	7c9fffff 	.word	0x7c9fffff
 864:	7fefffff 	.word	0x7fefffff
 868:	23d4      	movs	r3, #212	@ 0xd4
 86a:	049b      	lsls	r3, r3, #18
 86c:	18f6      	adds	r6, r6, r3
 86e:	e02f      	b.n	8d0 <_strtod_r+0x8d0>
 870:	20d0      	movs	r0, #208	@ 0xd0
 872:	0480      	lsls	r0, r0, #18
 874:	990e      	ldr	r1, [sp, #56]	@ 0x38
 876:	4281      	cmp	r1, r0
 878:	d81a      	bhi.n	8b0 <_strtod_r+0x8b0>
 87a:	4b2f      	ldr	r3, [pc, #188]	@ (938 <_strtod_r+0x938>)
 87c:	4a2d      	ldr	r2, [pc, #180]	@ (934 <_strtod_r+0x934>)
 87e:	1c29      	adds	r1, r5, #0
 880:	1c20      	adds	r0, r4, #0
 882:	f7ff fffe 	bl	0 <__gedf2>
 886:	2800      	cmp	r0, #0
 888:	db12      	blt.n	8b0 <_strtod_r+0x8b0>
 88a:	4a2c      	ldr	r2, [pc, #176]	@ (93c <_strtod_r+0x93c>)
 88c:	4b2c      	ldr	r3, [pc, #176]	@ (940 <_strtod_r+0x940>)
 88e:	1c29      	adds	r1, r5, #0
 890:	1c20      	adds	r0, r4, #0
 892:	f7ff fffe 	bl	0 <__adddf3>
 896:	f7ff fffe 	bl	0 <__fixdfsi>
 89a:	f7ff fffe 	bl	0 <__floatsidf>
 89e:	900c      	str	r0, [sp, #48]	@ 0x30
 8a0:	910d      	str	r1, [sp, #52]	@ 0x34
 8a2:	464a      	mov	r2, r9
 8a4:	2a00      	cmp	r2, #0
 8a6:	d103      	bne.n	8b0 <_strtod_r+0x8b0>
 8a8:	f7ff fffe 	bl	0 <__negdf2>
 8ac:	900c      	str	r0, [sp, #48]	@ 0x30
 8ae:	910d      	str	r1, [sp, #52]	@ 0x34
 8b0:	1c39      	adds	r1, r7, #0
 8b2:	1c30      	adds	r0, r6, #0
 8b4:	f7ff fffe 	bl	0 <_ulp>
 8b8:	1c0b      	adds	r3, r1, #0
 8ba:	1c02      	adds	r2, r0, #0
 8bc:	980c      	ldr	r0, [sp, #48]	@ 0x30
 8be:	990d      	ldr	r1, [sp, #52]	@ 0x34
 8c0:	f7ff fffe 	bl	0 <__muldf3>
 8c4:	1c3b      	adds	r3, r7, #0
 8c6:	1c32      	adds	r2, r6, #0
 8c8:	f7ff fffe 	bl	0 <__adddf3>
 8cc:	1c0f      	adds	r7, r1, #0
 8ce:	1c06      	adds	r6, r0, #0
 8d0:	481c      	ldr	r0, [pc, #112]	@ (944 <_strtod_r+0x944>)
 8d2:	46b0      	mov	r8, r6
 8d4:	4030      	ands	r0, r6
 8d6:	9b0e      	ldr	r3, [sp, #56]	@ 0x38
 8d8:	4283      	cmp	r3, r0
 8da:	d148      	bne.n	96e <_strtod_r+0x96e>
 8dc:	1c29      	adds	r1, r5, #0
 8de:	1c20      	adds	r0, r4, #0
 8e0:	f7ff fffe 	bl	0 <__fixdfsi>
 8e4:	1c01      	adds	r1, r0, #0
 8e6:	f7ff fffe 	bl	0 <__floatsidf>
 8ea:	1c0b      	adds	r3, r1, #0
 8ec:	1c02      	adds	r2, r0, #0
 8ee:	1c29      	adds	r1, r5, #0
 8f0:	1c20      	adds	r0, r4, #0
 8f2:	f7ff fffe 	bl	0 <__subdf3>
 8f6:	1c0d      	adds	r5, r1, #0
 8f8:	1c04      	adds	r4, r0, #0
 8fa:	4648      	mov	r0, r9
 8fc:	2800      	cmp	r0, #0
 8fe:	d106      	bne.n	90e <_strtod_r+0x90e>
 900:	2f00      	cmp	r7, #0
 902:	d104      	bne.n	90e <_strtod_r+0x90e>
 904:	4810      	ldr	r0, [pc, #64]	@ (948 <_strtod_r+0x948>)
 906:	4641      	mov	r1, r8
 908:	4001      	ands	r1, r0
 90a:	2900      	cmp	r1, #0
 90c:	d026      	beq.n	95c <_strtod_r+0x95c>
 90e:	4a0f      	ldr	r2, [pc, #60]	@ (94c <_strtod_r+0x94c>)
 910:	4b0f      	ldr	r3, [pc, #60]	@ (950 <_strtod_r+0x950>)
 912:	1c29      	adds	r1, r5, #0
 914:	1c20      	adds	r0, r4, #0
 916:	f7ff fffe 	bl	0 <__ltdf2>
 91a:	2800      	cmp	r0, #0
 91c:	da00      	bge.n	920 <_strtod_r+0x920>
 91e:	e0e0      	b.n	ae2 <_strtod_r+0xae2>
 920:	4a0c      	ldr	r2, [pc, #48]	@ (954 <_strtod_r+0x954>)
 922:	4b0d      	ldr	r3, [pc, #52]	@ (958 <_strtod_r+0x958>)
 924:	1c29      	adds	r1, r5, #0
 926:	1c20      	adds	r0, r4, #0
 928:	f7ff fffe 	bl	0 <__gtdf2>
 92c:	2800      	cmp	r0, #0
 92e:	dd00      	ble.n	932 <_strtod_r+0x932>
 930:	e0d7      	b.n	ae2 <_strtod_r+0xae2>
 932:	e01c      	b.n	96e <_strtod_r+0x96e>
 934:	3ff00000 	.word	0x3ff00000
 938:	00000000 	.word	0x00000000
 93c:	3fe00000 	.word	0x3fe00000
 940:	00000000 	.word	0x00000000
 944:	7ff00000 	.word	0x7ff00000
 948:	000fffff 	.word	0x000fffff
 94c:	3fdfffff 	.word	0x3fdfffff
 950:	94a03595 	.word	0x94a03595
 954:	3fe00000 	.word	0x3fe00000
 958:	35afe535 	.word	0x35afe535
 95c:	4b1f      	ldr	r3, [pc, #124]	@ (9dc <_strtod_r+0x9dc>)
 95e:	4a1e      	ldr	r2, [pc, #120]	@ (9d8 <_strtod_r+0x9d8>)
 960:	1c29      	adds	r1, r5, #0
 962:	1c20      	adds	r0, r4, #0
 964:	f7ff fffe 	bl	0 <__ltdf2>
 968:	2800      	cmp	r0, #0
 96a:	da00      	bge.n	96e <_strtod_r+0x96e>
 96c:	e0b9      	b.n	ae2 <_strtod_r+0xae2>
 96e:	9803      	ldr	r0, [sp, #12]
 970:	9911      	ldr	r1, [sp, #68]	@ 0x44
 972:	f7ff fffe 	bl	0 <_Bfree>
 976:	9803      	ldr	r0, [sp, #12]
 978:	9912      	ldr	r1, [sp, #72]	@ 0x48
 97a:	f7ff fffe 	bl	0 <_Bfree>
 97e:	9803      	ldr	r0, [sp, #12]
 980:	9914      	ldr	r1, [sp, #80]	@ 0x50
 982:	f7ff fffe 	bl	0 <_Bfree>
 986:	9803      	ldr	r0, [sp, #12]
 988:	9915      	ldr	r1, [sp, #84]	@ 0x54
 98a:	f7ff fffe 	bl	0 <_Bfree>
 98e:	9a13      	ldr	r2, [sp, #76]	@ 0x4c
 990:	6851      	ldr	r1, [r2, #4]
 992:	9803      	ldr	r0, [sp, #12]
 994:	f7ff fffe 	bl	0 <_Balloc>
 998:	9012      	str	r0, [sp, #72]	@ 0x48
 99a:	300c      	adds	r0, #12
 99c:	9913      	ldr	r1, [sp, #76]	@ 0x4c
 99e:	310c      	adds	r1, #12
 9a0:	9b13      	ldr	r3, [sp, #76]	@ 0x4c
 9a2:	691a      	ldr	r2, [r3, #16]
 9a4:	0092      	lsls	r2, r2, #2
 9a6:	3208      	adds	r2, #8
 9a8:	f7ff fffe 	bl	0 <memcpy>
 9ac:	9818      	ldr	r0, [sp, #96]	@ 0x60
 9ae:	9000      	str	r0, [sp, #0]
 9b0:	9803      	ldr	r0, [sp, #12]
 9b2:	1c3a      	adds	r2, r7, #0
 9b4:	1c31      	adds	r1, r6, #0
 9b6:	ab01      	add	r3, sp, #4
 9b8:	f7ff fffe 	bl	0 <_d2b>
 9bc:	9011      	str	r0, [sp, #68]	@ 0x44
 9be:	9803      	ldr	r0, [sp, #12]
 9c0:	2101      	movs	r1, #1
 9c2:	f7ff fffe 	bl	0 <_i2b>
 9c6:	9014      	str	r0, [sp, #80]	@ 0x50
 9c8:	9909      	ldr	r1, [sp, #36]	@ 0x24
 9ca:	2900      	cmp	r1, #0
 9cc:	db08      	blt.n	9e0 <_strtod_r+0x9e0>
 9ce:	2200      	movs	r2, #0
 9d0:	4690      	mov	r8, r2
 9d2:	1c0d      	adds	r5, r1, #0
 9d4:	9505      	str	r5, [sp, #20]
 9d6:	e009      	b.n	9ec <_strtod_r+0x9ec>
 9d8:	3fcfffff 	.word	0x3fcfffff
 9dc:	94a03595 	.word	0x94a03595
 9e0:	9a09      	ldr	r2, [sp, #36]	@ 0x24
 9e2:	4252      	negs	r2, r2
 9e4:	4690      	mov	r8, r2
 9e6:	2300      	movs	r3, #0
 9e8:	9305      	str	r3, [sp, #20]
 9ea:	2500      	movs	r5, #0
 9ec:	9901      	ldr	r1, [sp, #4]
 9ee:	2900      	cmp	r1, #0
 9f0:	db01      	blt.n	9f6 <_strtod_r+0x9f6>
 9f2:	4488      	add	r8, r1
 9f4:	e000      	b.n	9f8 <_strtod_r+0x9f8>
 9f6:	1a6d      	subs	r5, r5, r1
 9f8:	46c2      	mov	sl, r8
 9fa:	9c02      	ldr	r4, [sp, #8]
 9fc:	1908      	adds	r0, r1, r4
 9fe:	1e43      	subs	r3, r0, #1
 a00:	4802      	ldr	r0, [pc, #8]	@ (a0c <_strtod_r+0xa0c>)
 a02:	4283      	cmp	r3, r0
 a04:	da06      	bge.n	a14 <_strtod_r+0xa14>
 a06:	4802      	ldr	r0, [pc, #8]	@ (a10 <_strtod_r+0xa10>)
 a08:	1840      	adds	r0, r0, r1
 a0a:	e005      	b.n	a18 <_strtod_r+0xa18>
 a0c:	fffffc02 	.word	0xfffffc02
 a10:	00000433 	.word	0x00000433
 a14:	2036      	movs	r0, #54	@ 0x36
 a16:	1b00      	subs	r0, r0, r4
 a18:	4681      	mov	r9, r0
 a1a:	44c8      	add	r8, r9
 a1c:	4649      	mov	r1, r9
 a1e:	186b      	adds	r3, r5, r1
 a20:	1c1d      	adds	r5, r3, #0
 a22:	4543      	cmp	r3, r8
 a24:	dd00      	ble.n	a28 <_strtod_r+0xa28>
 a26:	4643      	mov	r3, r8
 a28:	4553      	cmp	r3, sl
 a2a:	dd00      	ble.n	a2e <_strtod_r+0xa2e>
 a2c:	4653      	mov	r3, sl
 a2e:	2b00      	cmp	r3, #0
 a30:	dd06      	ble.n	a40 <_strtod_r+0xa40>
 a32:	4640      	mov	r0, r8
 a34:	1ac0      	subs	r0, r0, r3
 a36:	4680      	mov	r8, r0
 a38:	1aed      	subs	r5, r5, r3
 a3a:	4651      	mov	r1, sl
 a3c:	1ac9      	subs	r1, r1, r3
 a3e:	468a      	mov	sl, r1
 a40:	2a00      	cmp	r2, #0
 a42:	dd0f      	ble.n	a64 <_strtod_r+0xa64>
 a44:	9803      	ldr	r0, [sp, #12]
 a46:	9914      	ldr	r1, [sp, #80]	@ 0x50
 a48:	f7ff fffe 	bl	0 <_pow5mult>
 a4c:	9014      	str	r0, [sp, #80]	@ 0x50
 a4e:	9803      	ldr	r0, [sp, #12]
 a50:	9914      	ldr	r1, [sp, #80]	@ 0x50
 a52:	9a11      	ldr	r2, [sp, #68]	@ 0x44
 a54:	f7ff fffe 	bl	0 <_multiply>
 a58:	1c04      	adds	r4, r0, #0
 a5a:	9803      	ldr	r0, [sp, #12]
 a5c:	9911      	ldr	r1, [sp, #68]	@ 0x44
 a5e:	f7ff fffe 	bl	0 <_Bfree>
 a62:	9411      	str	r4, [sp, #68]	@ 0x44
 a64:	4642      	mov	r2, r8
 a66:	2a00      	cmp	r2, #0
 a68:	dd04      	ble.n	a74 <_strtod_r+0xa74>
 a6a:	9803      	ldr	r0, [sp, #12]
 a6c:	9911      	ldr	r1, [sp, #68]	@ 0x44
 a6e:	f7ff fffe 	bl	0 <_lshift>
 a72:	9011      	str	r0, [sp, #68]	@ 0x44
 a74:	9b05      	ldr	r3, [sp, #20]
 a76:	2b00      	cmp	r3, #0
 a78:	dd05      	ble.n	a86 <_strtod_r+0xa86>
 a7a:	9803      	ldr	r0, [sp, #12]
 a7c:	9912      	ldr	r1, [sp, #72]	@ 0x48
 a7e:	1c1a      	adds	r2, r3, #0
 a80:	f7ff fffe 	bl	0 <_pow5mult>
 a84:	9012      	str	r0, [sp, #72]	@ 0x48
 a86:	2d00      	cmp	r5, #0
 a88:	dd05      	ble.n	a96 <_strtod_r+0xa96>
 a8a:	9803      	ldr	r0, [sp, #12]
 a8c:	9912      	ldr	r1, [sp, #72]	@ 0x48
 a8e:	1c2a      	adds	r2, r5, #0
 a90:	f7ff fffe 	bl	0 <_lshift>
 a94:	9012      	str	r0, [sp, #72]	@ 0x48
 a96:	4650      	mov	r0, sl
 a98:	2800      	cmp	r0, #0
 a9a:	dd05      	ble.n	aa8 <_strtod_r+0xaa8>
 a9c:	9803      	ldr	r0, [sp, #12]
 a9e:	9914      	ldr	r1, [sp, #80]	@ 0x50
 aa0:	4652      	mov	r2, sl
 aa2:	f7ff fffe 	bl	0 <_lshift>
 aa6:	9014      	str	r0, [sp, #80]	@ 0x50
 aa8:	9803      	ldr	r0, [sp, #12]
 aaa:	9911      	ldr	r1, [sp, #68]	@ 0x44
 aac:	9a12      	ldr	r2, [sp, #72]	@ 0x48
 aae:	f7ff fffe 	bl	0 <__mdiff>
 ab2:	9015      	str	r0, [sp, #84]	@ 0x54
 ab4:	68c1      	ldr	r1, [r0, #12]
 ab6:	4689      	mov	r9, r1
 ab8:	2000      	movs	r0, #0
 aba:	9a15      	ldr	r2, [sp, #84]	@ 0x54
 abc:	60d0      	str	r0, [r2, #12]
 abe:	9815      	ldr	r0, [sp, #84]	@ 0x54
 ac0:	9914      	ldr	r1, [sp, #80]	@ 0x50
 ac2:	f7ff fffe 	bl	0 <__mcmp>
 ac6:	1c03      	adds	r3, r0, #0
 ac8:	2b00      	cmp	r3, #0
 aca:	db00      	blt.n	ace <_strtod_r+0xace>
 acc:	e5d0      	b.n	670 <_strtod_r+0x670>
 ace:	464b      	mov	r3, r9
 ad0:	2b00      	cmp	r3, #0
 ad2:	d106      	bne.n	ae2 <_strtod_r+0xae2>
 ad4:	2f00      	cmp	r7, #0
 ad6:	d104      	bne.n	ae2 <_strtod_r+0xae2>
 ad8:	4815      	ldr	r0, [pc, #84]	@ (b30 <_strtod_r+0xb30>)
 ada:	4030      	ands	r0, r6
 adc:	2800      	cmp	r0, #0
 ade:	d100      	bne.n	ae2 <_strtod_r+0xae2>
 ae0:	e5ba      	b.n	658 <_strtod_r+0x658>
 ae2:	9803      	ldr	r0, [sp, #12]
 ae4:	9911      	ldr	r1, [sp, #68]	@ 0x44
 ae6:	f7ff fffe 	bl	0 <_Bfree>
 aea:	9803      	ldr	r0, [sp, #12]
 aec:	9912      	ldr	r1, [sp, #72]	@ 0x48
 aee:	f7ff fffe 	bl	0 <_Bfree>
 af2:	9803      	ldr	r0, [sp, #12]
 af4:	9914      	ldr	r1, [sp, #80]	@ 0x50
 af6:	f7ff fffe 	bl	0 <_Bfree>
 afa:	9803      	ldr	r0, [sp, #12]
 afc:	9913      	ldr	r1, [sp, #76]	@ 0x4c
 afe:	f7ff fffe 	bl	0 <_Bfree>
 b02:	9803      	ldr	r0, [sp, #12]
 b04:	9915      	ldr	r1, [sp, #84]	@ 0x54
 b06:	f7ff fffe 	bl	0 <_Bfree>
 b0a:	9804      	ldr	r0, [sp, #16]
 b0c:	2800      	cmp	r0, #0
 b0e:	d001      	beq.n	b14 <_strtod_r+0xb14>
 b10:	990a      	ldr	r1, [sp, #40]	@ 0x28
 b12:	6001      	str	r1, [r0, #0]
 b14:	1c39      	adds	r1, r7, #0
 b16:	1c30      	adds	r0, r6, #0
 b18:	9a08      	ldr	r2, [sp, #32]
 b1a:	2a00      	cmp	r2, #0
 b1c:	d001      	beq.n	b22 <_strtod_r+0xb22>
 b1e:	f7ff fffe 	bl	0 <__negdf2>
 b22:	b01a      	add	sp, #104	@ 0x68
 b24:	bc38      	pop	{r3, r4, r5}
 b26:	4698      	mov	r8, r3
 b28:	46a1      	mov	r9, r4
 b2a:	46aa      	mov	sl, r5
 b2c:	bdf0      	pop	{r4, r5, r6, r7, pc}
 b2e:	0000      	.short	0x0000
 b30:	000fffff 	.word	0x000fffff

00000b34 <strtod>:
 b34:	b500      	push	{lr}
 b36:	1c03      	adds	r3, r0, #0
 b38:	1c0a      	adds	r2, r1, #0
 b3a:	4803      	ldr	r0, [pc, #12]	@ (b48 <strtod+0x14>)
 b3c:	6800      	ldr	r0, [r0, #0]
 b3e:	1c19      	adds	r1, r3, #0
 b40:	f7ff fffe 	bl	0 <_strtod_r>
 b44:	bd00      	pop	{pc}
 b46:	0000      	.short	0x0000
 b48:	00000000 	.word	0x00000000

00000b4c <strtodf>:
 b4c:	b500      	push	{lr}
 b4e:	f7ff fffe 	bl	b34 <strtod>
 b52:	f7ff fffe 	bl	0 <__truncdfsf2>
 b56:	bd00      	pop	{pc}

mprec.o:     file format elf32-littlearm


Disassembly of section .text:

00000000 <_Balloc>:
   0:	b570      	push	{r4, r5, r6, lr}
   2:	1c04      	adds	r4, r0, #0
   4:	1c0e      	adds	r6, r1, #0
   6:	6ce0      	ldr	r0, [r4, #76]	@ 0x4c
   8:	2800      	cmp	r0, #0
   a:	d107      	bne.n	1c <_Balloc+0x1c>
   c:	1c20      	adds	r0, r4, #0
   e:	2104      	movs	r1, #4
  10:	2210      	movs	r2, #16
  12:	f7ff fffe 	bl	0 <_calloc_r>
  16:	64e0      	str	r0, [r4, #76]	@ 0x4c
  18:	2800      	cmp	r0, #0
  1a:	d013      	beq.n	44 <_Balloc+0x44>
  1c:	6ce1      	ldr	r1, [r4, #76]	@ 0x4c
  1e:	00b0      	lsls	r0, r6, #2
  20:	1842      	adds	r2, r0, r1
  22:	6811      	ldr	r1, [r2, #0]
  24:	2900      	cmp	r1, #0
  26:	d002      	beq.n	2e <_Balloc+0x2e>
  28:	6808      	ldr	r0, [r1, #0]
  2a:	6010      	str	r0, [r2, #0]
  2c:	e00e      	b.n	4c <_Balloc+0x4c>
  2e:	2501      	movs	r5, #1
  30:	40b5      	lsls	r5, r6
  32:	00aa      	lsls	r2, r5, #2
  34:	3214      	adds	r2, #20
  36:	1c20      	adds	r0, r4, #0
  38:	2101      	movs	r1, #1
  3a:	f7ff fffe 	bl	0 <_calloc_r>
  3e:	1c01      	adds	r1, r0, #0
  40:	2900      	cmp	r1, #0
  42:	d101      	bne.n	48 <_Balloc+0x48>
  44:	2000      	movs	r0, #0
  46:	e005      	b.n	54 <_Balloc+0x54>
  48:	604e      	str	r6, [r1, #4]
  4a:	608d      	str	r5, [r1, #8]
  4c:	2000      	movs	r0, #0
  4e:	6108      	str	r0, [r1, #16]
  50:	60c8      	str	r0, [r1, #12]
  52:	1c08      	adds	r0, r1, #0
  54:	bd70      	pop	{r4, r5, r6, pc}
	...

00000058 <_Bfree>:
  58:	1c03      	adds	r3, r0, #0
  5a:	1c0a      	adds	r2, r1, #0
  5c:	2a00      	cmp	r2, #0
  5e:	d006      	beq.n	6e <_Bfree+0x16>
  60:	6850      	ldr	r0, [r2, #4]
  62:	6cd9      	ldr	r1, [r3, #76]	@ 0x4c
  64:	0080      	lsls	r0, r0, #2
  66:	1840      	adds	r0, r0, r1
  68:	6801      	ldr	r1, [r0, #0]
  6a:	6011      	str	r1, [r2, #0]
  6c:	6002      	str	r2, [r0, #0]
  6e:	4770      	bx	lr

00000070 <_multadd>:
  70:	b5f0      	push	{r4, r5, r6, r7, lr}
  72:	464f      	mov	r7, r9
  74:	4646      	mov	r6, r8
  76:	b4c0      	push	{r6, r7}
  78:	4681      	mov	r9, r0
  7a:	1c0d      	adds	r5, r1, #0
  7c:	1c14      	adds	r4, r2, #0
  7e:	4698      	mov	r8, r3
  80:	692e      	ldr	r6, [r5, #16]
  82:	1c2b      	adds	r3, r5, #0
  84:	3314      	adds	r3, #20
  86:	2700      	movs	r7, #0
  88:	481e      	ldr	r0, [pc, #120]	@ (104 <_multadd+0x94>)
  8a:	4684      	mov	ip, r0
  8c:	6819      	ldr	r1, [r3, #0]
  8e:	1c08      	adds	r0, r1, #0
  90:	4662      	mov	r2, ip
  92:	4010      	ands	r0, r2
  94:	1c02      	adds	r2, r0, #0
  96:	4362      	muls	r2, r4
  98:	4442      	add	r2, r8
  9a:	0c09      	lsrs	r1, r1, #16
  9c:	1c08      	adds	r0, r1, #0
  9e:	4360      	muls	r0, r4
  a0:	0c11      	lsrs	r1, r2, #16
  a2:	1840      	adds	r0, r0, r1
  a4:	0c01      	lsrs	r1, r0, #16
  a6:	4688      	mov	r8, r1
  a8:	0400      	lsls	r0, r0, #16
  aa:	4661      	mov	r1, ip
  ac:	400a      	ands	r2, r1
  ae:	1880      	adds	r0, r0, r2
  b0:	c301      	stmia	r3!, {r0}
  b2:	3701      	adds	r7, #1
  b4:	42b7      	cmp	r7, r6
  b6:	dbe9      	blt.n	8c <_multadd+0x1c>
  b8:	4642      	mov	r2, r8
  ba:	2a00      	cmp	r2, #0
  bc:	d01d      	beq.n	fa <_multadd+0x8a>
  be:	68a8      	ldr	r0, [r5, #8]
  c0:	4286      	cmp	r6, r0
  c2:	db12      	blt.n	ea <_multadd+0x7a>
  c4:	6869      	ldr	r1, [r5, #4]
  c6:	3101      	adds	r1, #1
  c8:	4648      	mov	r0, r9
  ca:	f7ff fffe 	bl	0 <_Balloc>
  ce:	1c04      	adds	r4, r0, #0
  d0:	300c      	adds	r0, #12
  d2:	1c29      	adds	r1, r5, #0
  d4:	310c      	adds	r1, #12
  d6:	692a      	ldr	r2, [r5, #16]
  d8:	0092      	lsls	r2, r2, #2
  da:	3208      	adds	r2, #8
  dc:	f7ff fffe 	bl	0 <memcpy>
  e0:	4648      	mov	r0, r9
  e2:	1c29      	adds	r1, r5, #0
  e4:	f7ff fffe 	bl	58 <_Bfree>
  e8:	1c25      	adds	r5, r4, #0
  ea:	00b1      	lsls	r1, r6, #2
  ec:	1c28      	adds	r0, r5, #0
  ee:	3014      	adds	r0, #20
  f0:	1840      	adds	r0, r0, r1
  f2:	4641      	mov	r1, r8
  f4:	6001      	str	r1, [r0, #0]
  f6:	3601      	adds	r6, #1
  f8:	612e      	str	r6, [r5, #16]
  fa:	1c28      	adds	r0, r5, #0
  fc:	bc18      	pop	{r3, r4}
  fe:	4698      	mov	r8, r3
 100:	46a1      	mov	r9, r4
 102:	bdf0      	pop	{r4, r5, r6, r7, pc}
 104:	0000ffff 	.word	0x0000ffff

00000108 <_s2b>:
 108:	b5f0      	push	{r4, r5, r6, r7, lr}
 10a:	4647      	mov	r7, r8
 10c:	b480      	push	{r7}
 10e:	1c07      	adds	r7, r0, #0
 110:	1c0c      	adds	r4, r1, #0
 112:	1c16      	adds	r6, r2, #0
 114:	4698      	mov	r8, r3
 116:	4640      	mov	r0, r8
 118:	3008      	adds	r0, #8
 11a:	2109      	movs	r1, #9
 11c:	f7ff fffe 	bl	0 <__divsi3>
 120:	2100      	movs	r1, #0
 122:	2201      	movs	r2, #1
 124:	2801      	cmp	r0, #1
 126:	dd03      	ble.n	130 <_s2b+0x28>
 128:	0052      	lsls	r2, r2, #1
 12a:	3101      	adds	r1, #1
 12c:	4290      	cmp	r0, r2
 12e:	dcfb      	bgt.n	128 <_s2b+0x20>
 130:	1c38      	adds	r0, r7, #0
 132:	f7ff fffe 	bl	0 <_Balloc>
 136:	1c01      	adds	r1, r0, #0
 138:	9806      	ldr	r0, [sp, #24]
 13a:	6148      	str	r0, [r1, #20]
 13c:	2001      	movs	r0, #1
 13e:	6108      	str	r0, [r1, #16]
 140:	2509      	movs	r5, #9
 142:	2e09      	cmp	r6, #9
 144:	dd0d      	ble.n	162 <_s2b+0x5a>
 146:	3409      	adds	r4, #9
 148:	7823      	ldrb	r3, [r4, #0]
 14a:	3b30      	subs	r3, #48	@ 0x30
 14c:	3401      	adds	r4, #1
 14e:	1c38      	adds	r0, r7, #0
 150:	220a      	movs	r2, #10
 152:	f7ff fffe 	bl	70 <_multadd>
 156:	1c01      	adds	r1, r0, #0
 158:	3501      	adds	r5, #1
 15a:	42b5      	cmp	r5, r6
 15c:	dbf4      	blt.n	148 <_s2b+0x40>
 15e:	3401      	adds	r4, #1
 160:	e000      	b.n	164 <_s2b+0x5c>
 162:	340a      	adds	r4, #10
 164:	4545      	cmp	r5, r8
 166:	da0c      	bge.n	182 <_s2b+0x7a>
 168:	4640      	mov	r0, r8
 16a:	1b45      	subs	r5, r0, r5
 16c:	7823      	ldrb	r3, [r4, #0]
 16e:	3b30      	subs	r3, #48	@ 0x30
 170:	3401      	adds	r4, #1
 172:	1c38      	adds	r0, r7, #0
 174:	220a      	movs	r2, #10
 176:	f7ff fffe 	bl	70 <_multadd>
 17a:	1c01      	adds	r1, r0, #0
 17c:	3d01      	subs	r5, #1
 17e:	2d00      	cmp	r5, #0
 180:	d1f4      	bne.n	16c <_s2b+0x64>
 182:	1c08      	adds	r0, r1, #0
 184:	bc08      	pop	{r3}
 186:	4698      	mov	r8, r3
 188:	bdf0      	pop	{r4, r5, r6, r7, pc}
	...

0000018c <_hi0bits>:
 18c:	1c01      	adds	r1, r0, #0
 18e:	2200      	movs	r2, #0
 190:	4812      	ldr	r0, [pc, #72]	@ (1dc <_hi0bits+0x50>)
 192:	4008      	ands	r0, r1
 194:	2800      	cmp	r0, #0
 196:	d101      	bne.n	19c <_hi0bits+0x10>
 198:	2210      	movs	r2, #16
 19a:	0409      	lsls	r1, r1, #16
 19c:	20ff      	movs	r0, #255	@ 0xff
 19e:	0600      	lsls	r0, r0, #24
 1a0:	4008      	ands	r0, r1
 1a2:	2800      	cmp	r0, #0
 1a4:	d101      	bne.n	1aa <_hi0bits+0x1e>
 1a6:	3208      	adds	r2, #8
 1a8:	0209      	lsls	r1, r1, #8
 1aa:	20f0      	movs	r0, #240	@ 0xf0
 1ac:	0600      	lsls	r0, r0, #24
 1ae:	4008      	ands	r0, r1
 1b0:	2800      	cmp	r0, #0
 1b2:	d101      	bne.n	1b8 <_hi0bits+0x2c>
 1b4:	3204      	adds	r2, #4
 1b6:	0109      	lsls	r1, r1, #4
 1b8:	20c0      	movs	r0, #192	@ 0xc0
 1ba:	0600      	lsls	r0, r0, #24
 1bc:	4008      	ands	r0, r1
 1be:	2800      	cmp	r0, #0
 1c0:	d101      	bne.n	1c6 <_hi0bits+0x3a>
 1c2:	3202      	adds	r2, #2
 1c4:	0089      	lsls	r1, r1, #2
 1c6:	2900      	cmp	r1, #0
 1c8:	db0a      	blt.n	1e0 <_hi0bits+0x54>
 1ca:	3201      	adds	r2, #1
 1cc:	2080      	movs	r0, #128	@ 0x80
 1ce:	05c0      	lsls	r0, r0, #23
 1d0:	4008      	ands	r0, r1
 1d2:	2800      	cmp	r0, #0
 1d4:	d104      	bne.n	1e0 <_hi0bits+0x54>
 1d6:	2020      	movs	r0, #32
 1d8:	e003      	b.n	1e2 <_hi0bits+0x56>
 1da:	0000      	.short	0x0000
 1dc:	ffff0000 	.word	0xffff0000
 1e0:	1c10      	adds	r0, r2, #0
 1e2:	4770      	bx	lr

000001e4 <_lo0bits>:
 1e4:	1c03      	adds	r3, r0, #0
 1e6:	6819      	ldr	r1, [r3, #0]
 1e8:	2007      	movs	r0, #7
 1ea:	4008      	ands	r0, r1
 1ec:	2800      	cmp	r0, #0
 1ee:	d011      	beq.n	214 <_lo0bits+0x30>
 1f0:	2001      	movs	r0, #1
 1f2:	4008      	ands	r0, r1
 1f4:	2800      	cmp	r0, #0
 1f6:	d001      	beq.n	1fc <_lo0bits+0x18>
 1f8:	2000      	movs	r0, #0
 1fa:	e033      	b.n	264 <_lo0bits+0x80>
 1fc:	2002      	movs	r0, #2
 1fe:	4008      	ands	r0, r1
 200:	2800      	cmp	r0, #0
 202:	d003      	beq.n	20c <_lo0bits+0x28>
 204:	0848      	lsrs	r0, r1, #1
 206:	6018      	str	r0, [r3, #0]
 208:	2001      	movs	r0, #1
 20a:	e02b      	b.n	264 <_lo0bits+0x80>
 20c:	0888      	lsrs	r0, r1, #2
 20e:	6018      	str	r0, [r3, #0]
 210:	2002      	movs	r0, #2
 212:	e027      	b.n	264 <_lo0bits+0x80>
 214:	2200      	movs	r2, #0
 216:	4811      	ldr	r0, [pc, #68]	@ (25c <_lo0bits+0x78>)
 218:	4008      	ands	r0, r1
 21a:	2800      	cmp	r0, #0
 21c:	d101      	bne.n	222 <_lo0bits+0x3e>
 21e:	2210      	movs	r2, #16
 220:	0c09      	lsrs	r1, r1, #16
 222:	20ff      	movs	r0, #255	@ 0xff
 224:	4008      	ands	r0, r1
 226:	2800      	cmp	r0, #0
 228:	d101      	bne.n	22e <_lo0bits+0x4a>
 22a:	3208      	adds	r2, #8
 22c:	0a09      	lsrs	r1, r1, #8
 22e:	200f      	movs	r0, #15
 230:	4008      	ands	r0, r1
 232:	2800      	cmp	r0, #0
 234:	d101      	bne.n	23a <_lo0bits+0x56>
 236:	3204      	adds	r2, #4
 238:	0909      	lsrs	r1, r1, #4
 23a:	2003      	movs	r0, #3
 23c:	4008      	ands	r0, r1
 23e:	2800      	cmp	r0, #0
 240:	d101      	bne.n	246 <_lo0bits+0x62>
 242:	3202      	adds	r2, #2
 244:	0889      	lsrs	r1, r1, #2
 246:	2001      	movs	r0, #1
 248:	4008      	ands	r0, r1
 24a:	2800      	cmp	r0, #0
 24c:	d108      	bne.n	260 <_lo0bits+0x7c>
 24e:	3201      	adds	r2, #1
 250:	0849      	lsrs	r1, r1, #1
 252:	2900      	cmp	r1, #0
 254:	d104      	bne.n	260 <_lo0bits+0x7c>
 256:	2020      	movs	r0, #32
 258:	e004      	b.n	264 <_lo0bits+0x80>
 25a:	0000      	.short	0x0000
 25c:	0000ffff 	.word	0x0000ffff
 260:	6019      	str	r1, [r3, #0]
 262:	1c10      	adds	r0, r2, #0
 264:	4770      	bx	lr
	...

00000268 <_i2b>:
 268:	b510      	push	{r4, lr}
 26a:	1c0c      	adds	r4, r1, #0
 26c:	2101      	movs	r1, #1
 26e:	f7ff fffe 	bl	0 <_Balloc>
 272:	6144      	str	r4, [r0, #20]
 274:	2101      	movs	r1, #1
 276:	6101      	str	r1, [r0, #16]
 278:	bd10      	pop	{r4, pc}
	...

0000027c <_multiply>:
 27c:	b5f0      	push	{r4, r5, r6, r7, lr}
 27e:	4657      	mov	r7, sl
 280:	464e      	mov	r6, r9
 282:	4645      	mov	r5, r8
 284:	b4e0      	push	{r5, r6, r7}
 286:	b089      	sub	sp, #36	@ 0x24
 288:	1c03      	adds	r3, r0, #0
 28a:	1c0c      	adds	r4, r1, #0
 28c:	1c15      	adds	r5, r2, #0
 28e:	6921      	ldr	r1, [r4, #16]
 290:	6928      	ldr	r0, [r5, #16]
 292:	4281      	cmp	r1, r0
 294:	da02      	bge.n	29c <_multiply+0x20>
 296:	9400      	str	r4, [sp, #0]
 298:	1c2c      	adds	r4, r5, #0
 29a:	9d00      	ldr	r5, [sp, #0]
 29c:	6861      	ldr	r1, [r4, #4]
 29e:	6926      	ldr	r6, [r4, #16]
 2a0:	6928      	ldr	r0, [r5, #16]
 2a2:	4680      	mov	r8, r0
 2a4:	4642      	mov	r2, r8
 2a6:	18b2      	adds	r2, r6, r2
 2a8:	9201      	str	r2, [sp, #4]
 2aa:	68a0      	ldr	r0, [r4, #8]
 2ac:	4282      	cmp	r2, r0
 2ae:	dd00      	ble.n	2b2 <_multiply+0x36>
 2b0:	3101      	adds	r1, #1
 2b2:	1c18      	adds	r0, r3, #0
 2b4:	f7ff fffe 	bl	0 <_Balloc>
 2b8:	9000      	str	r0, [sp, #0]
 2ba:	1c07      	adds	r7, r0, #0
 2bc:	3714      	adds	r7, #20
 2be:	9901      	ldr	r1, [sp, #4]
 2c0:	0088      	lsls	r0, r1, #2
 2c2:	183a      	adds	r2, r7, r0
 2c4:	9202      	str	r2, [sp, #8]
 2c6:	9006      	str	r0, [sp, #24]
 2c8:	1c21      	adds	r1, r4, #0
 2ca:	3114      	adds	r1, #20
 2cc:	00b3      	lsls	r3, r6, #2
 2ce:	1c2a      	adds	r2, r5, #0
 2d0:	3214      	adds	r2, #20
 2d2:	4645      	mov	r5, r8
 2d4:	00ac      	lsls	r4, r5, #2
 2d6:	9802      	ldr	r0, [sp, #8]
 2d8:	4287      	cmp	r7, r0
 2da:	d204      	bcs.n	2e6 <_multiply+0x6a>
 2dc:	2000      	movs	r0, #0
 2de:	c701      	stmia	r7!, {r0}
 2e0:	9d02      	ldr	r5, [sp, #8]
 2e2:	42af      	cmp	r7, r5
 2e4:	d3fb      	bcc.n	2de <_multiply+0x62>
 2e6:	9102      	str	r1, [sp, #8]
 2e8:	18cb      	adds	r3, r1, r3
 2ea:	9303      	str	r3, [sp, #12]
 2ec:	4690      	mov	r8, r2
 2ee:	4444      	add	r4, r8
 2f0:	9404      	str	r4, [sp, #16]
 2f2:	9800      	ldr	r0, [sp, #0]
 2f4:	3014      	adds	r0, #20
 2f6:	4681      	mov	r9, r0
 2f8:	4649      	mov	r1, r9
 2fa:	9108      	str	r1, [sp, #32]
 2fc:	45a0      	cmp	r8, r4
 2fe:	d256      	bcs.n	3ae <_multiply+0x132>
 300:	4642      	mov	r2, r8
 302:	ca40      	ldmia	r2!, {r6}
 304:	9205      	str	r2, [sp, #20]
 306:	482d      	ldr	r0, [pc, #180]	@ (3bc <_multiply+0x140>)
 308:	4006      	ands	r6, r0
 30a:	464c      	mov	r4, r9
 30c:	3404      	adds	r4, #4
 30e:	9407      	str	r4, [sp, #28]
 310:	2e00      	cmp	r6, #0
 312:	d021      	beq.n	358 <_multiply+0xdc>
 314:	9f02      	ldr	r7, [sp, #8]
 316:	464d      	mov	r5, r9
 318:	2100      	movs	r1, #0
 31a:	468c      	mov	ip, r1
 31c:	4682      	mov	sl, r0
 31e:	cf08      	ldmia	r7!, {r3}
 320:	1c18      	adds	r0, r3, #0
 322:	4652      	mov	r2, sl
 324:	4010      	ands	r0, r2
 326:	1c01      	adds	r1, r0, #0
 328:	4371      	muls	r1, r6
 32a:	682a      	ldr	r2, [r5, #0]
 32c:	1c10      	adds	r0, r2, #0
 32e:	4654      	mov	r4, sl
 330:	4020      	ands	r0, r4
 332:	1809      	adds	r1, r1, r0
 334:	4660      	mov	r0, ip
 336:	180c      	adds	r4, r1, r0
 338:	0c21      	lsrs	r1, r4, #16
 33a:	0c1b      	lsrs	r3, r3, #16
 33c:	1c18      	adds	r0, r3, #0
 33e:	4370      	muls	r0, r6
 340:	0c12      	lsrs	r2, r2, #16
 342:	1880      	adds	r0, r0, r2
 344:	1842      	adds	r2, r0, r1
 346:	0c10      	lsrs	r0, r2, #16
 348:	4684      	mov	ip, r0
 34a:	802a      	strh	r2, [r5, #0]
 34c:	806c      	strh	r4, [r5, #2]
 34e:	3504      	adds	r5, #4
 350:	9903      	ldr	r1, [sp, #12]
 352:	428f      	cmp	r7, r1
 354:	d3e3      	bcc.n	31e <_multiply+0xa2>
 356:	6028      	str	r0, [r5, #0]
 358:	4642      	mov	r2, r8
 35a:	8856      	ldrh	r6, [r2, #2]
 35c:	2e00      	cmp	r6, #0
 35e:	d01f      	beq.n	3a0 <_multiply+0x124>
 360:	9f02      	ldr	r7, [sp, #8]
 362:	464d      	mov	r5, r9
 364:	2400      	movs	r4, #0
 366:	46a4      	mov	ip, r4
 368:	682a      	ldr	r2, [r5, #0]
 36a:	4b14      	ldr	r3, [pc, #80]	@ (3bc <_multiply+0x140>)
 36c:	cf02      	ldmia	r7!, {r1}
 36e:	1c08      	adds	r0, r1, #0
 370:	4018      	ands	r0, r3
 372:	4370      	muls	r0, r6
 374:	886c      	ldrh	r4, [r5, #2]
 376:	1824      	adds	r4, r4, r0
 378:	46a0      	mov	r8, r4
 37a:	4464      	add	r4, ip
 37c:	0c20      	lsrs	r0, r4, #16
 37e:	4684      	mov	ip, r0
 380:	802c      	strh	r4, [r5, #0]
 382:	806a      	strh	r2, [r5, #2]
 384:	3504      	adds	r5, #4
 386:	0c09      	lsrs	r1, r1, #16
 388:	4371      	muls	r1, r6
 38a:	6828      	ldr	r0, [r5, #0]
 38c:	4018      	ands	r0, r3
 38e:	1809      	adds	r1, r1, r0
 390:	4664      	mov	r4, ip
 392:	190a      	adds	r2, r1, r4
 394:	0c10      	lsrs	r0, r2, #16
 396:	4684      	mov	ip, r0
 398:	9903      	ldr	r1, [sp, #12]
 39a:	428f      	cmp	r7, r1
 39c:	d3e6      	bcc.n	36c <_multiply+0xf0>
 39e:	602a      	str	r2, [r5, #0]
 3a0:	9a05      	ldr	r2, [sp, #20]
 3a2:	4690      	mov	r8, r2
 3a4:	9c07      	ldr	r4, [sp, #28]
 3a6:	46a1      	mov	r9, r4
 3a8:	9d04      	ldr	r5, [sp, #16]
 3aa:	45a8      	cmp	r8, r5
 3ac:	d3a8      	bcc.n	300 <_multiply+0x84>
 3ae:	9808      	ldr	r0, [sp, #32]
 3b0:	9906      	ldr	r1, [sp, #24]
 3b2:	1845      	adds	r5, r0, r1
 3b4:	9a01      	ldr	r2, [sp, #4]
 3b6:	2a00      	cmp	r2, #0
 3b8:	dd0b      	ble.n	3d2 <_multiply+0x156>
 3ba:	e006      	b.n	3ca <_multiply+0x14e>
 3bc:	0000ffff 	.word	0x0000ffff
 3c0:	9c01      	ldr	r4, [sp, #4]
 3c2:	3c01      	subs	r4, #1
 3c4:	9401      	str	r4, [sp, #4]
 3c6:	2c00      	cmp	r4, #0
 3c8:	dd03      	ble.n	3d2 <_multiply+0x156>
 3ca:	3d04      	subs	r5, #4
 3cc:	6828      	ldr	r0, [r5, #0]
 3ce:	2800      	cmp	r0, #0
 3d0:	d0f6      	beq.n	3c0 <_multiply+0x144>
 3d2:	9d01      	ldr	r5, [sp, #4]
 3d4:	9800      	ldr	r0, [sp, #0]
 3d6:	6105      	str	r5, [r0, #16]
 3d8:	9800      	ldr	r0, [sp, #0]
 3da:	b009      	add	sp, #36	@ 0x24
 3dc:	bc38      	pop	{r3, r4, r5}
 3de:	4698      	mov	r8, r3
 3e0:	46a1      	mov	r9, r4
 3e2:	46aa      	mov	sl, r5
 3e4:	bdf0      	pop	{r4, r5, r6, r7, pc}
	...

000003e8 <_pow5mult>:
 3e8:	b5f0      	push	{r4, r5, r6, r7, lr}
 3ea:	4647      	mov	r7, r8
 3ec:	b480      	push	{r7}
 3ee:	4680      	mov	r8, r0
 3f0:	1c0f      	adds	r7, r1, #0
 3f2:	1c16      	adds	r6, r2, #0
 3f4:	2103      	movs	r1, #3
 3f6:	4031      	ands	r1, r6
 3f8:	2900      	cmp	r1, #0
 3fa:	d00a      	beq.n	412 <_pow5mult+0x2a>
 3fc:	480d      	ldr	r0, [pc, #52]	@ (434 <_pow5mult+0x4c>)
 3fe:	3901      	subs	r1, #1
 400:	0089      	lsls	r1, r1, #2
 402:	1809      	adds	r1, r1, r0
 404:	680a      	ldr	r2, [r1, #0]
 406:	4640      	mov	r0, r8
 408:	1c39      	adds	r1, r7, #0
 40a:	2300      	movs	r3, #0
 40c:	f7ff fffe 	bl	70 <_multadd>
 410:	1c07      	adds	r7, r0, #0
 412:	10b6      	asrs	r6, r6, #2
 414:	2e00      	cmp	r6, #0
 416:	d02f      	beq.n	478 <_pow5mult+0x90>
 418:	4640      	mov	r0, r8
 41a:	6c85      	ldr	r5, [r0, #72]	@ 0x48
 41c:	1c2c      	adds	r4, r5, #0
 41e:	2d00      	cmp	r5, #0
 420:	d118      	bne.n	454 <_pow5mult+0x6c>
 422:	4905      	ldr	r1, [pc, #20]	@ (438 <_pow5mult+0x50>)
 424:	f7ff fffe 	bl	268 <_i2b>
 428:	4641      	mov	r1, r8
 42a:	6488      	str	r0, [r1, #72]	@ 0x48
 42c:	1c05      	adds	r5, r0, #0
 42e:	602c      	str	r4, [r5, #0]
 430:	e010      	b.n	454 <_pow5mult+0x6c>
 432:	0000      	.short	0x0000
 434:	00000000 	.word	0x00000000
 438:	00000271 	.word	0x00000271
 43c:	6828      	ldr	r0, [r5, #0]
 43e:	1c04      	adds	r4, r0, #0
 440:	2800      	cmp	r0, #0
 442:	d106      	bne.n	452 <_pow5mult+0x6a>
 444:	4640      	mov	r0, r8
 446:	1c29      	adds	r1, r5, #0
 448:	1c2a      	adds	r2, r5, #0
 44a:	f7ff fffe 	bl	27c <_multiply>
 44e:	6028      	str	r0, [r5, #0]
 450:	6004      	str	r4, [r0, #0]
 452:	1c05      	adds	r5, r0, #0
 454:	2001      	movs	r0, #1
 456:	4030      	ands	r0, r6
 458:	2800      	cmp	r0, #0
 45a:	d00a      	beq.n	472 <_pow5mult+0x8a>
 45c:	4640      	mov	r0, r8
 45e:	1c39      	adds	r1, r7, #0
 460:	1c2a      	adds	r2, r5, #0
 462:	f7ff fffe 	bl	27c <_multiply>
 466:	1c04      	adds	r4, r0, #0
 468:	4640      	mov	r0, r8
 46a:	1c39      	adds	r1, r7, #0
 46c:	f7ff fffe 	bl	58 <_Bfree>
 470:	1c27      	adds	r7, r4, #0
 472:	1076      	asrs	r6, r6, #1
 474:	2e00      	cmp	r6, #0
 476:	d1e1      	bne.n	43c <_pow5mult+0x54>
 478:	1c38      	adds	r0, r7, #0
 47a:	bc08      	pop	{r3}
 47c:	4698      	mov	r8, r3
 47e:	bdf0      	pop	{r4, r5, r6, r7, pc}

00000480 <_lshift>:
 480:	b5f0      	push	{r4, r5, r6, r7, lr}
 482:	4657      	mov	r7, sl
 484:	464e      	mov	r6, r9
 486:	4645      	mov	r5, r8
 488:	b4e0      	push	{r5, r6, r7}
 48a:	4682      	mov	sl, r0
 48c:	4688      	mov	r8, r1
 48e:	1c15      	adds	r5, r2, #0
 490:	116e      	asrs	r6, r5, #5
 492:	6849      	ldr	r1, [r1, #4]
 494:	4642      	mov	r2, r8
 496:	6910      	ldr	r0, [r2, #16]
 498:	1830      	adds	r0, r6, r0
 49a:	1c47      	adds	r7, r0, #1
 49c:	6892      	ldr	r2, [r2, #8]
 49e:	4297      	cmp	r7, r2
 4a0:	dd03      	ble.n	4aa <_lshift+0x2a>
 4a2:	3101      	adds	r1, #1
 4a4:	0052      	lsls	r2, r2, #1
 4a6:	4297      	cmp	r7, r2
 4a8:	dcfb      	bgt.n	4a2 <_lshift+0x22>
 4aa:	4650      	mov	r0, sl
 4ac:	f7ff fffe 	bl	0 <_Balloc>
 4b0:	4681      	mov	r9, r0
 4b2:	464c      	mov	r4, r9
 4b4:	3414      	adds	r4, #20
 4b6:	4640      	mov	r0, r8
 4b8:	3014      	adds	r0, #20
 4ba:	2e00      	cmp	r6, #0
 4bc:	dd05      	ble.n	4ca <_lshift+0x4a>
 4be:	2100      	movs	r1, #0
 4c0:	1c32      	adds	r2, r6, #0
 4c2:	c402      	stmia	r4!, {r1}
 4c4:	3a01      	subs	r2, #1
 4c6:	2a00      	cmp	r2, #0
 4c8:	d1fb      	bne.n	4c2 <_lshift+0x42>
 4ca:	1c03      	adds	r3, r0, #0
 4cc:	4641      	mov	r1, r8
 4ce:	6908      	ldr	r0, [r1, #16]
 4d0:	0080      	lsls	r0, r0, #2
 4d2:	181e      	adds	r6, r3, r0
 4d4:	201f      	movs	r0, #31
 4d6:	4005      	ands	r5, r0
 4d8:	2d00      	cmp	r5, #0
 4da:	d00f      	beq.n	4fc <_lshift+0x7c>
 4dc:	2020      	movs	r0, #32
 4de:	1b41      	subs	r1, r0, r5
 4e0:	2200      	movs	r2, #0
 4e2:	6818      	ldr	r0, [r3, #0]
 4e4:	40a8      	lsls	r0, r5
 4e6:	4310      	orrs	r0, r2
 4e8:	c401      	stmia	r4!, {r0}
 4ea:	cb04      	ldmia	r3!, {r2}
 4ec:	40ca      	lsrs	r2, r1
 4ee:	42b3      	cmp	r3, r6
 4f0:	d3f7      	bcc.n	4e2 <_lshift+0x62>
 4f2:	6022      	str	r2, [r4, #0]
 4f4:	2a00      	cmp	r2, #0
 4f6:	d005      	beq.n	504 <_lshift+0x84>
 4f8:	3701      	adds	r7, #1
 4fa:	e003      	b.n	504 <_lshift+0x84>
 4fc:	cb01      	ldmia	r3!, {r0}
 4fe:	c401      	stmia	r4!, {r0}
 500:	42b3      	cmp	r3, r6
 502:	d3fb      	bcc.n	4fc <_lshift+0x7c>
 504:	1e78      	subs	r0, r7, #1
 506:	464a      	mov	r2, r9
 508:	6110      	str	r0, [r2, #16]
 50a:	4650      	mov	r0, sl
 50c:	4641      	mov	r1, r8
 50e:	f7ff fffe 	bl	58 <_Bfree>
 512:	4648      	mov	r0, r9
 514:	bc38      	pop	{r3, r4, r5}
 516:	4698      	mov	r8, r3
 518:	46a1      	mov	r9, r4
 51a:	46aa      	mov	sl, r5
 51c:	bdf0      	pop	{r4, r5, r6, r7, pc}
	...

00000520 <__mcmp>:
 520:	b530      	push	{r4, r5, lr}
 522:	1c02      	adds	r2, r0, #0
 524:	1c0d      	adds	r5, r1, #0
 526:	6910      	ldr	r0, [r2, #16]
 528:	6929      	ldr	r1, [r5, #16]
 52a:	1a40      	subs	r0, r0, r1
 52c:	2800      	cmp	r0, #0
 52e:	d115      	bne.n	55c <__mcmp+0x3c>
 530:	1c14      	adds	r4, r2, #0
 532:	3414      	adds	r4, #20
 534:	0089      	lsls	r1, r1, #2
 536:	1863      	adds	r3, r4, r1
 538:	1c28      	adds	r0, r5, #0
 53a:	3014      	adds	r0, #20
 53c:	1841      	adds	r1, r0, r1
 53e:	3b04      	subs	r3, #4
 540:	3904      	subs	r1, #4
 542:	6818      	ldr	r0, [r3, #0]
 544:	680a      	ldr	r2, [r1, #0]
 546:	4290      	cmp	r0, r2
 548:	d005      	beq.n	556 <__mcmp+0x36>
 54a:	2101      	movs	r1, #1
 54c:	4290      	cmp	r0, r2
 54e:	d200      	bcs.n	552 <__mcmp+0x32>
 550:	3902      	subs	r1, #2
 552:	1c08      	adds	r0, r1, #0
 554:	e002      	b.n	55c <__mcmp+0x3c>
 556:	42a3      	cmp	r3, r4
 558:	d8f1      	bhi.n	53e <__mcmp+0x1e>
 55a:	2000      	movs	r0, #0
 55c:	bd30      	pop	{r4, r5, pc}
	...

00000560 <__mdiff>:
 560:	b5f0      	push	{r4, r5, r6, r7, lr}
 562:	4657      	mov	r7, sl
 564:	464e      	mov	r6, r9
 566:	4645      	mov	r5, r8
 568:	b4e0      	push	{r5, r6, r7}
 56a:	b082      	sub	sp, #8
 56c:	1c06      	adds	r6, r0, #0
 56e:	1c0d      	adds	r5, r1, #0
 570:	4690      	mov	r8, r2
 572:	1c28      	adds	r0, r5, #0
 574:	4641      	mov	r1, r8
 576:	f7ff fffe 	bl	520 <__mcmp>
 57a:	1c04      	adds	r4, r0, #0
 57c:	2c00      	cmp	r4, #0
 57e:	d108      	bne.n	592 <__mdiff+0x32>
 580:	1c30      	adds	r0, r6, #0
 582:	2100      	movs	r1, #0
 584:	f7ff fffe 	bl	0 <_Balloc>
 588:	1c07      	adds	r7, r0, #0
 58a:	2001      	movs	r0, #1
 58c:	6138      	str	r0, [r7, #16]
 58e:	617c      	str	r4, [r7, #20]
 590:	e057      	b.n	642 <__mdiff+0xe2>
 592:	2c00      	cmp	r4, #0
 594:	da04      	bge.n	5a0 <__mdiff+0x40>
 596:	1c2f      	adds	r7, r5, #0
 598:	4645      	mov	r5, r8
 59a:	46b8      	mov	r8, r7
 59c:	2401      	movs	r4, #1
 59e:	e000      	b.n	5a2 <__mdiff+0x42>
 5a0:	2400      	movs	r4, #0
 5a2:	6869      	ldr	r1, [r5, #4]
 5a4:	1c30      	adds	r0, r6, #0
 5a6:	f7ff fffe 	bl	0 <_Balloc>
 5aa:	1c07      	adds	r7, r0, #0
 5ac:	60fc      	str	r4, [r7, #12]
 5ae:	6928      	ldr	r0, [r5, #16]
 5b0:	4681      	mov	r9, r0
 5b2:	1c2e      	adds	r6, r5, #0
 5b4:	3614      	adds	r6, #20
 5b6:	0080      	lsls	r0, r0, #2
 5b8:	1980      	adds	r0, r0, r6
 5ba:	4682      	mov	sl, r0
 5bc:	4641      	mov	r1, r8
 5be:	6908      	ldr	r0, [r1, #16]
 5c0:	2314      	movs	r3, #20
 5c2:	4443      	add	r3, r8
 5c4:	469c      	mov	ip, r3
 5c6:	0080      	lsls	r0, r0, #2
 5c8:	4460      	add	r0, ip
 5ca:	9000      	str	r0, [sp, #0]
 5cc:	1c3c      	adds	r4, r7, #0
 5ce:	3414      	adds	r4, #20
 5d0:	2500      	movs	r5, #0
 5d2:	4816      	ldr	r0, [pc, #88]	@ (62c <__mdiff+0xcc>)
 5d4:	4680      	mov	r8, r0
 5d6:	ce02      	ldmia	r6!, {r1}
 5d8:	9101      	str	r1, [sp, #4]
 5da:	4643      	mov	r3, r8
 5dc:	4019      	ands	r1, r3
 5de:	4660      	mov	r0, ip
 5e0:	3004      	adds	r0, #4
 5e2:	4684      	mov	ip, r0
 5e4:	3804      	subs	r0, #4
 5e6:	c804      	ldmia	r0!, {r2}
 5e8:	1c10      	adds	r0, r2, #0
 5ea:	4018      	ands	r0, r3
 5ec:	1a09      	subs	r1, r1, r0
 5ee:	1948      	adds	r0, r1, r5
 5f0:	1405      	asrs	r5, r0, #16
 5f2:	9901      	ldr	r1, [sp, #4]
 5f4:	0c0b      	lsrs	r3, r1, #16
 5f6:	0c12      	lsrs	r2, r2, #16
 5f8:	1a9b      	subs	r3, r3, r2
 5fa:	1959      	adds	r1, r3, r5
 5fc:	140d      	asrs	r5, r1, #16
 5fe:	8021      	strh	r1, [r4, #0]
 600:	8060      	strh	r0, [r4, #2]
 602:	3404      	adds	r4, #4
 604:	9b00      	ldr	r3, [sp, #0]
 606:	459c      	cmp	ip, r3
 608:	d3e5      	bcc.n	5d6 <__mdiff+0x76>
 60a:	4556      	cmp	r6, sl
 60c:	d213      	bcs.n	636 <__mdiff+0xd6>
 60e:	4a07      	ldr	r2, [pc, #28]	@ (62c <__mdiff+0xcc>)
 610:	ce02      	ldmia	r6!, {r1}
 612:	1c08      	adds	r0, r1, #0
 614:	4010      	ands	r0, r2
 616:	1940      	adds	r0, r0, r5
 618:	1405      	asrs	r5, r0, #16
 61a:	0c09      	lsrs	r1, r1, #16
 61c:	1949      	adds	r1, r1, r5
 61e:	140d      	asrs	r5, r1, #16
 620:	8021      	strh	r1, [r4, #0]
 622:	8060      	strh	r0, [r4, #2]
 624:	3404      	adds	r4, #4
 626:	4556      	cmp	r6, sl
 628:	d3f2      	bcc.n	610 <__mdiff+0xb0>
 62a:	e004      	b.n	636 <__mdiff+0xd6>
 62c:	0000ffff 	.word	0x0000ffff
 630:	2001      	movs	r0, #1
 632:	4240      	negs	r0, r0
 634:	4481      	add	r9, r0
 636:	3c04      	subs	r4, #4
 638:	6820      	ldr	r0, [r4, #0]
 63a:	2800      	cmp	r0, #0
 63c:	d0f8      	beq.n	630 <__mdiff+0xd0>
 63e:	4649      	mov	r1, r9
 640:	6139      	str	r1, [r7, #16]
 642:	1c38      	adds	r0, r7, #0
 644:	b002      	add	sp, #8
 646:	bc38      	pop	{r3, r4, r5}
 648:	4698      	mov	r8, r3
 64a:	46a1      	mov	r9, r4
 64c:	46aa      	mov	sl, r5
 64e:	bdf0      	pop	{r4, r5, r6, r7, pc}

00000650 <_ulp>:
 650:	b510      	push	{r4, lr}
 652:	4a04      	ldr	r2, [pc, #16]	@ (664 <_ulp+0x14>)
 654:	4002      	ands	r2, r0
 656:	4804      	ldr	r0, [pc, #16]	@ (668 <_ulp+0x18>)
 658:	1812      	adds	r2, r2, r0
 65a:	2a00      	cmp	r2, #0
 65c:	dd06      	ble.n	66c <_ulp+0x1c>
 65e:	1c13      	adds	r3, r2, #0
 660:	2400      	movs	r4, #0
 662:	e018      	b.n	696 <_ulp+0x46>
 664:	7ff00000 	.word	0x7ff00000
 668:	fcc00000 	.word	0xfcc00000
 66c:	4250      	negs	r0, r2
 66e:	1502      	asrs	r2, r0, #20
 670:	2a13      	cmp	r2, #19
 672:	dc05      	bgt.n	680 <_ulp+0x30>
 674:	2080      	movs	r0, #128	@ 0x80
 676:	0300      	lsls	r0, r0, #12
 678:	1c03      	adds	r3, r0, #0
 67a:	4113      	asrs	r3, r2
 67c:	2400      	movs	r4, #0
 67e:	e00a      	b.n	696 <_ulp+0x46>
 680:	2300      	movs	r3, #0
 682:	3a14      	subs	r2, #20
 684:	2a1e      	cmp	r2, #30
 686:	dc04      	bgt.n	692 <_ulp+0x42>
 688:	201f      	movs	r0, #31
 68a:	1a80      	subs	r0, r0, r2
 68c:	2101      	movs	r1, #1
 68e:	4081      	lsls	r1, r0
 690:	e000      	b.n	694 <_ulp+0x44>
 692:	2101      	movs	r1, #1
 694:	1c0c      	adds	r4, r1, #0
 696:	1c21      	adds	r1, r4, #0
 698:	1c18      	adds	r0, r3, #0
 69a:	bd10      	pop	{r4, pc}

0000069c <_b2d>:
 69c:	b5f0      	push	{r4, r5, r6, r7, lr}
 69e:	4647      	mov	r7, r8
 6a0:	b480      	push	{r7}
 6a2:	b081      	sub	sp, #4
 6a4:	1c0c      	adds	r4, r1, #0
 6a6:	2114      	movs	r1, #20
 6a8:	1809      	adds	r1, r1, r0
 6aa:	4688      	mov	r8, r1
 6ac:	6900      	ldr	r0, [r0, #16]
 6ae:	0080      	lsls	r0, r0, #2
 6b0:	180d      	adds	r5, r1, r0
 6b2:	3d04      	subs	r5, #4
 6b4:	682a      	ldr	r2, [r5, #0]
 6b6:	1c10      	adds	r0, r2, #0
 6b8:	9200      	str	r2, [sp, #0]
 6ba:	f7ff fffe 	bl	18c <_hi0bits>
 6be:	1c03      	adds	r3, r0, #0
 6c0:	2020      	movs	r0, #32
 6c2:	1ac0      	subs	r0, r0, r3
 6c4:	6020      	str	r0, [r4, #0]
 6c6:	9a00      	ldr	r2, [sp, #0]
 6c8:	2b0a      	cmp	r3, #10
 6ca:	dc17      	bgt.n	6fc <_b2d+0x60>
 6cc:	200b      	movs	r0, #11
 6ce:	1ac0      	subs	r0, r0, r3
 6d0:	1c11      	adds	r1, r2, #0
 6d2:	40c1      	lsrs	r1, r0
 6d4:	4803      	ldr	r0, [pc, #12]	@ (6e4 <_b2d+0x48>)
 6d6:	1c0e      	adds	r6, r1, #0
 6d8:	4306      	orrs	r6, r0
 6da:	4545      	cmp	r5, r8
 6dc:	d904      	bls.n	6e8 <_b2d+0x4c>
 6de:	3d04      	subs	r5, #4
 6e0:	6829      	ldr	r1, [r5, #0]
 6e2:	e002      	b.n	6ea <_b2d+0x4e>
 6e4:	3ff00000 	.word	0x3ff00000
 6e8:	2100      	movs	r1, #0
 6ea:	1c18      	adds	r0, r3, #0
 6ec:	3015      	adds	r0, #21
 6ee:	4082      	lsls	r2, r0
 6f0:	200b      	movs	r0, #11
 6f2:	1ac0      	subs	r0, r0, r3
 6f4:	40c1      	lsrs	r1, r0
 6f6:	1c17      	adds	r7, r2, #0
 6f8:	430f      	orrs	r7, r1
 6fa:	e025      	b.n	748 <_b2d+0xac>
 6fc:	4545      	cmp	r5, r8
 6fe:	d902      	bls.n	706 <_b2d+0x6a>
 700:	3d04      	subs	r5, #4
 702:	682c      	ldr	r4, [r5, #0]
 704:	e000      	b.n	708 <_b2d+0x6c>
 706:	2400      	movs	r4, #0
 708:	3b0b      	subs	r3, #11
 70a:	2b00      	cmp	r3, #0
 70c:	d018      	beq.n	740 <_b2d+0xa4>
 70e:	409a      	lsls	r2, r3
 710:	2020      	movs	r0, #32
 712:	1ac0      	subs	r0, r0, r3
 714:	1c21      	adds	r1, r4, #0
 716:	40c1      	lsrs	r1, r0
 718:	4804      	ldr	r0, [pc, #16]	@ (72c <_b2d+0x90>)
 71a:	4301      	orrs	r1, r0
 71c:	1c16      	adds	r6, r2, #0
 71e:	430e      	orrs	r6, r1
 720:	4545      	cmp	r5, r8
 722:	d905      	bls.n	730 <_b2d+0x94>
 724:	3d04      	subs	r5, #4
 726:	682a      	ldr	r2, [r5, #0]
 728:	e003      	b.n	732 <_b2d+0x96>
 72a:	0000      	.short	0x0000
 72c:	3ff00000 	.word	0x3ff00000
 730:	2200      	movs	r2, #0
 732:	409c      	lsls	r4, r3
 734:	2020      	movs	r0, #32
 736:	1ac0      	subs	r0, r0, r3
 738:	40c2      	lsrs	r2, r0
 73a:	1c27      	adds	r7, r4, #0
 73c:	4317      	orrs	r7, r2
 73e:	e003      	b.n	748 <_b2d+0xac>
 740:	4804      	ldr	r0, [pc, #16]	@ (754 <_b2d+0xb8>)
 742:	1c16      	adds	r6, r2, #0
 744:	4306      	orrs	r6, r0
 746:	1c27      	adds	r7, r4, #0
 748:	1c39      	adds	r1, r7, #0
 74a:	1c30      	adds	r0, r6, #0
 74c:	b001      	add	sp, #4
 74e:	bc08      	pop	{r3}
 750:	4698      	mov	r8, r3
 752:	bdf0      	pop	{r4, r5, r6, r7, pc}
 754:	3ff00000 	.word	0x3ff00000

00000758 <_d2b>:
 758:	b5f0      	push	{r4, r5, r6, r7, lr}
 75a:	4657      	mov	r7, sl
 75c:	464e      	mov	r6, r9
 75e:	4645      	mov	r5, r8
 760:	b4e0      	push	{r5, r6, r7}
 762:	b082      	sub	sp, #8
 764:	4699      	mov	r9, r3
 766:	9b0a      	ldr	r3, [sp, #40]	@ 0x28
 768:	469a      	mov	sl, r3
 76a:	1c15      	adds	r5, r2, #0
 76c:	1c0c      	adds	r4, r1, #0
 76e:	2101      	movs	r1, #1
 770:	f7ff fffe 	bl	0 <_Balloc>
 774:	1c06      	adds	r6, r0, #0
 776:	2014      	movs	r0, #20
 778:	1980      	adds	r0, r0, r6
 77a:	4680      	mov	r8, r0
 77c:	4a10      	ldr	r2, [pc, #64]	@ (7c0 <_d2b+0x68>)
 77e:	1c21      	adds	r1, r4, #0
 780:	400a      	ands	r2, r1
 782:	9201      	str	r2, [sp, #4]
 784:	480f      	ldr	r0, [pc, #60]	@ (7c4 <_d2b+0x6c>)
 786:	4004      	ands	r4, r0
 788:	0d27      	lsrs	r7, r4, #20
 78a:	2f00      	cmp	r7, #0
 78c:	d003      	beq.n	796 <_d2b+0x3e>
 78e:	2080      	movs	r0, #128	@ 0x80
 790:	0340      	lsls	r0, r0, #13
 792:	4310      	orrs	r0, r2
 794:	9001      	str	r0, [sp, #4]
 796:	9500      	str	r5, [sp, #0]
 798:	2d00      	cmp	r5, #0
 79a:	d021      	beq.n	7e0 <_d2b+0x88>
 79c:	4668      	mov	r0, sp
 79e:	f7ff fffe 	bl	1e4 <_lo0bits>
 7a2:	1c02      	adds	r2, r0, #0
 7a4:	2a00      	cmp	r2, #0
 7a6:	d00f      	beq.n	7c8 <_d2b+0x70>
 7a8:	2020      	movs	r0, #32
 7aa:	1a80      	subs	r0, r0, r2
 7ac:	9901      	ldr	r1, [sp, #4]
 7ae:	4081      	lsls	r1, r0
 7b0:	9800      	ldr	r0, [sp, #0]
 7b2:	4308      	orrs	r0, r1
 7b4:	6170      	str	r0, [r6, #20]
 7b6:	9801      	ldr	r0, [sp, #4]
 7b8:	40d0      	lsrs	r0, r2
 7ba:	9001      	str	r0, [sp, #4]
 7bc:	e006      	b.n	7cc <_d2b+0x74>
 7be:	0000      	.short	0x0000
 7c0:	000fffff 	.word	0x000fffff
 7c4:	7fffffff 	.word	0x7fffffff
 7c8:	9800      	ldr	r0, [sp, #0]
 7ca:	6170      	str	r0, [r6, #20]
 7cc:	9801      	ldr	r0, [sp, #4]
 7ce:	4641      	mov	r1, r8
 7d0:	6048      	str	r0, [r1, #4]
 7d2:	2101      	movs	r1, #1
 7d4:	2800      	cmp	r0, #0
 7d6:	d000      	beq.n	7da <_d2b+0x82>
 7d8:	2102      	movs	r1, #2
 7da:	6131      	str	r1, [r6, #16]
 7dc:	1c0c      	adds	r4, r1, #0
 7de:	e009      	b.n	7f4 <_d2b+0x9c>
 7e0:	a801      	add	r0, sp, #4
 7e2:	f7ff fffe 	bl	1e4 <_lo0bits>
 7e6:	1c02      	adds	r2, r0, #0
 7e8:	9801      	ldr	r0, [sp, #4]
 7ea:	6170      	str	r0, [r6, #20]
 7ec:	2001      	movs	r0, #1
 7ee:	6130      	str	r0, [r6, #16]
 7f0:	2401      	movs	r4, #1
 7f2:	3220      	adds	r2, #32
 7f4:	2f00      	cmp	r7, #0
 7f6:	d00b      	beq.n	810 <_d2b+0xb8>
 7f8:	4b04      	ldr	r3, [pc, #16]	@ (80c <_d2b+0xb4>)
 7fa:	18d0      	adds	r0, r2, r3
 7fc:	1838      	adds	r0, r7, r0
 7fe:	4649      	mov	r1, r9
 800:	6008      	str	r0, [r1, #0]
 802:	2035      	movs	r0, #53	@ 0x35
 804:	1a80      	subs	r0, r0, r2
 806:	4653      	mov	r3, sl
 808:	6018      	str	r0, [r3, #0]
 80a:	e00f      	b.n	82c <_d2b+0xd4>
 80c:	fffffbcd 	.word	0xfffffbcd
 810:	490a      	ldr	r1, [pc, #40]	@ (83c <_d2b+0xe4>)
 812:	1850      	adds	r0, r2, r1
 814:	464b      	mov	r3, r9
 816:	6018      	str	r0, [r3, #0]
 818:	00a0      	lsls	r0, r4, #2
 81a:	4440      	add	r0, r8
 81c:	3804      	subs	r0, #4
 81e:	6800      	ldr	r0, [r0, #0]
 820:	f7ff fffe 	bl	18c <_hi0bits>
 824:	0161      	lsls	r1, r4, #5
 826:	1a09      	subs	r1, r1, r0
 828:	4650      	mov	r0, sl
 82a:	6001      	str	r1, [r0, #0]
 82c:	1c30      	adds	r0, r6, #0
 82e:	b002      	add	sp, #8
 830:	bc38      	pop	{r3, r4, r5}
 832:	4698      	mov	r8, r3
 834:	46a1      	mov	r9, r4
 836:	46aa      	mov	sl, r5
 838:	bdf0      	pop	{r4, r5, r6, r7, pc}
 83a:	0000      	.short	0x0000
 83c:	fffffbce 	.word	0xfffffbce

00000840 <_ratio>:
 840:	b5f0      	push	{r4, r5, r6, r7, lr}
 842:	b084      	sub	sp, #16
 844:	1c04      	adds	r4, r0, #0
 846:	1c0d      	adds	r5, r1, #0
 848:	4669      	mov	r1, sp
 84a:	f7ff fffe 	bl	69c <_b2d>
 84e:	9002      	str	r0, [sp, #8]
 850:	9103      	str	r1, [sp, #12]
 852:	a901      	add	r1, sp, #4
 854:	1c28      	adds	r0, r5, #0
 856:	f7ff fffe 	bl	69c <_b2d>
 85a:	1c0f      	adds	r7, r1, #0
 85c:	1c06      	adds	r6, r0, #0
 85e:	9a00      	ldr	r2, [sp, #0]
 860:	9801      	ldr	r0, [sp, #4]
 862:	1a12      	subs	r2, r2, r0
 864:	6920      	ldr	r0, [r4, #16]
 866:	6929      	ldr	r1, [r5, #16]
 868:	1a40      	subs	r0, r0, r1
 86a:	0140      	lsls	r0, r0, #5
 86c:	1810      	adds	r0, r2, r0
 86e:	2800      	cmp	r0, #0
 870:	dd04      	ble.n	87c <_ratio+0x3c>
 872:	0500      	lsls	r0, r0, #20
 874:	9902      	ldr	r1, [sp, #8]
 876:	1808      	adds	r0, r1, r0
 878:	9002      	str	r0, [sp, #8]
 87a:	e001      	b.n	880 <_ratio+0x40>
 87c:	0500      	lsls	r0, r0, #20
 87e:	1a36      	subs	r6, r6, r0
 880:	9802      	ldr	r0, [sp, #8]
 882:	9903      	ldr	r1, [sp, #12]
 884:	1c3b      	adds	r3, r7, #0
 886:	1c32      	adds	r2, r6, #0
 888:	f7ff fffe 	bl	0 <__divdf3>
 88c:	b004      	add	sp, #16
 88e:	bdf0      	pop	{r4, r5, r6, r7, pc}

00000890 <_mprec_log10>:
 890:	b510      	push	{r4, lr}
 892:	1c04      	adds	r4, r0, #0
 894:	4905      	ldr	r1, [pc, #20]	@ (8ac <_mprec_log10+0x1c>)
 896:	4804      	ldr	r0, [pc, #16]	@ (8a8 <_mprec_log10+0x18>)
 898:	2c17      	cmp	r4, #23
 89a:	dc0b      	bgt.n	8b4 <_mprec_log10+0x24>
 89c:	4804      	ldr	r0, [pc, #16]	@ (8b0 <_mprec_log10+0x20>)
 89e:	00e1      	lsls	r1, r4, #3
 8a0:	1809      	adds	r1, r1, r0
 8a2:	6808      	ldr	r0, [r1, #0]
 8a4:	6849      	ldr	r1, [r1, #4]
 8a6:	e00e      	b.n	8c6 <_mprec_log10+0x36>
 8a8:	3ff00000 	.word	0x3ff00000
	...
 8b4:	2c00      	cmp	r4, #0
 8b6:	dd06      	ble.n	8c6 <_mprec_log10+0x36>
 8b8:	4b04      	ldr	r3, [pc, #16]	@ (8cc <_mprec_log10+0x3c>)
 8ba:	4a03      	ldr	r2, [pc, #12]	@ (8c8 <_mprec_log10+0x38>)
 8bc:	f7ff fffe 	bl	0 <__muldf3>
 8c0:	3c01      	subs	r4, #1
 8c2:	2c00      	cmp	r4, #0
 8c4:	dcf8      	bgt.n	8b8 <_mprec_log10+0x28>
 8c6:	bd10      	pop	{r4, pc}
 8c8:	40240000 	.word	0x40240000
 8cc:	00000000 	.word	0x00000000

dtoa.o:     file format elf32-littlearm


Disassembly of section .text:

00000000 <quorem>:
   0:	b5f0      	push	{r4, r5, r6, r7, lr}
   2:	4657      	mov	r7, sl
   4:	464e      	mov	r6, r9
   6:	4645      	mov	r5, r8
   8:	b4e0      	push	{r5, r6, r7}
   a:	b086      	sub	sp, #24
   c:	9000      	str	r0, [sp, #0]
   e:	9101      	str	r1, [sp, #4]
  10:	690f      	ldr	r7, [r1, #16]
  12:	6900      	ldr	r0, [r0, #16]
  14:	42b8      	cmp	r0, r7
  16:	da01      	bge.n	1c <quorem+0x1c>
  18:	2000      	movs	r0, #0
  1a:	e099      	b.n	150 <quorem+0x150>
  1c:	9801      	ldr	r0, [sp, #4]
  1e:	3014      	adds	r0, #20
  20:	4680      	mov	r8, r0
  22:	3f01      	subs	r7, #1
  24:	00b8      	lsls	r0, r7, #2
  26:	4641      	mov	r1, r8
  28:	1809      	adds	r1, r1, r0
  2a:	9103      	str	r1, [sp, #12]
  2c:	9c00      	ldr	r4, [sp, #0]
  2e:	3414      	adds	r4, #20
  30:	1825      	adds	r5, r4, r0
  32:	6809      	ldr	r1, [r1, #0]
  34:	3101      	adds	r1, #1
  36:	682a      	ldr	r2, [r5, #0]
  38:	4692      	mov	sl, r2
  3a:	4650      	mov	r0, sl
  3c:	f7ff fffe 	bl	0 <__udivsi3>
  40:	9002      	str	r0, [sp, #8]
  42:	4643      	mov	r3, r8
  44:	9305      	str	r3, [sp, #20]
  46:	9404      	str	r4, [sp, #16]
  48:	2800      	cmp	r0, #0
  4a:	d03c      	beq.n	c6 <quorem+0xc6>
  4c:	2600      	movs	r6, #0
  4e:	46b1      	mov	r9, r6
  50:	4817      	ldr	r0, [pc, #92]	@ (b0 <quorem+0xb0>)
  52:	4684      	mov	ip, r0
  54:	4642      	mov	r2, r8
  56:	3204      	adds	r2, #4
  58:	4690      	mov	r8, r2
  5a:	3a04      	subs	r2, #4
  5c:	ca02      	ldmia	r2!, {r1}
  5e:	1c08      	adds	r0, r1, #0
  60:	4663      	mov	r3, ip
  62:	4018      	ands	r0, r3
  64:	9a02      	ldr	r2, [sp, #8]
  66:	4350      	muls	r0, r2
  68:	464b      	mov	r3, r9
  6a:	18c2      	adds	r2, r0, r3
  6c:	0c08      	lsrs	r0, r1, #16
  6e:	9b02      	ldr	r3, [sp, #8]
  70:	1c01      	adds	r1, r0, #0
  72:	4359      	muls	r1, r3
  74:	0c10      	lsrs	r0, r2, #16
  76:	180b      	adds	r3, r1, r0
  78:	0c18      	lsrs	r0, r3, #16
  7a:	4681      	mov	r9, r0
  7c:	6820      	ldr	r0, [r4, #0]
  7e:	4661      	mov	r1, ip
  80:	4008      	ands	r0, r1
  82:	400a      	ands	r2, r1
  84:	1a80      	subs	r0, r0, r2
  86:	1982      	adds	r2, r0, r6
  88:	1416      	asrs	r6, r2, #16
  8a:	6820      	ldr	r0, [r4, #0]
  8c:	0c01      	lsrs	r1, r0, #16
  8e:	4660      	mov	r0, ip
  90:	4003      	ands	r3, r0
  92:	1ac9      	subs	r1, r1, r3
  94:	1988      	adds	r0, r1, r6
  96:	1406      	asrs	r6, r0, #16
  98:	8020      	strh	r0, [r4, #0]
  9a:	8062      	strh	r2, [r4, #2]
  9c:	3404      	adds	r4, #4
  9e:	9903      	ldr	r1, [sp, #12]
  a0:	4588      	cmp	r8, r1
  a2:	d9d7      	bls.n	54 <quorem+0x54>
  a4:	4652      	mov	r2, sl
  a6:	2a00      	cmp	r2, #0
  a8:	d10d      	bne.n	c6 <quorem+0xc6>
  aa:	9c04      	ldr	r4, [sp, #16]
  ac:	e003      	b.n	b6 <quorem+0xb6>
  ae:	0000      	.short	0x0000
  b0:	0000ffff 	.word	0x0000ffff
  b4:	3f01      	subs	r7, #1
  b6:	3d04      	subs	r5, #4
  b8:	42a5      	cmp	r5, r4
  ba:	d902      	bls.n	c2 <quorem+0xc2>
  bc:	6828      	ldr	r0, [r5, #0]
  be:	2800      	cmp	r0, #0
  c0:	d0f8      	beq.n	b4 <quorem+0xb4>
  c2:	9b00      	ldr	r3, [sp, #0]
  c4:	611f      	str	r7, [r3, #16]
  c6:	9800      	ldr	r0, [sp, #0]
  c8:	9901      	ldr	r1, [sp, #4]
  ca:	f7ff fffe 	bl	0 <__mcmp>
  ce:	2800      	cmp	r0, #0
  d0:	db3d      	blt.n	14e <quorem+0x14e>
  d2:	9802      	ldr	r0, [sp, #8]
  d4:	3001      	adds	r0, #1
  d6:	9002      	str	r0, [sp, #8]
  d8:	2600      	movs	r6, #0
  da:	46b1      	mov	r9, r6
  dc:	9c04      	ldr	r4, [sp, #16]
  de:	9905      	ldr	r1, [sp, #20]
  e0:	4688      	mov	r8, r1
  e2:	00ba      	lsls	r2, r7, #2
  e4:	4692      	mov	sl, r2
  e6:	4d14      	ldr	r5, [pc, #80]	@ (138 <quorem+0x138>)
  e8:	4643      	mov	r3, r8
  ea:	3304      	adds	r3, #4
  ec:	4698      	mov	r8, r3
  ee:	3b04      	subs	r3, #4
  f0:	cb02      	ldmia	r3!, {r1}
  f2:	1c08      	adds	r0, r1, #0
  f4:	4028      	ands	r0, r5
  f6:	464b      	mov	r3, r9
  f8:	18c2      	adds	r2, r0, r3
  fa:	0c09      	lsrs	r1, r1, #16
  fc:	0c10      	lsrs	r0, r2, #16
  fe:	180b      	adds	r3, r1, r0
 100:	0c18      	lsrs	r0, r3, #16
 102:	4681      	mov	r9, r0
 104:	6821      	ldr	r1, [r4, #0]
 106:	1c08      	adds	r0, r1, #0
 108:	4028      	ands	r0, r5
 10a:	402a      	ands	r2, r5
 10c:	1a80      	subs	r0, r0, r2
 10e:	1982      	adds	r2, r0, r6
 110:	1416      	asrs	r6, r2, #16
 112:	0c09      	lsrs	r1, r1, #16
 114:	402b      	ands	r3, r5
 116:	1ac9      	subs	r1, r1, r3
 118:	1988      	adds	r0, r1, r6
 11a:	1406      	asrs	r6, r0, #16
 11c:	8020      	strh	r0, [r4, #0]
 11e:	8062      	strh	r2, [r4, #2]
 120:	3404      	adds	r4, #4
 122:	9903      	ldr	r1, [sp, #12]
 124:	4588      	cmp	r8, r1
 126:	d9df      	bls.n	e8 <quorem+0xe8>
 128:	9c04      	ldr	r4, [sp, #16]
 12a:	4652      	mov	r2, sl
 12c:	18a5      	adds	r5, r4, r2
 12e:	6828      	ldr	r0, [r5, #0]
 130:	2800      	cmp	r0, #0
 132:	d10c      	bne.n	14e <quorem+0x14e>
 134:	e003      	b.n	13e <quorem+0x13e>
 136:	0000      	.short	0x0000
 138:	0000ffff 	.word	0x0000ffff
 13c:	3f01      	subs	r7, #1
 13e:	3d04      	subs	r5, #4
 140:	42a5      	cmp	r5, r4
 142:	d902      	bls.n	14a <quorem+0x14a>
 144:	6828      	ldr	r0, [r5, #0]
 146:	2800      	cmp	r0, #0
 148:	d0f8      	beq.n	13c <quorem+0x13c>
 14a:	9b00      	ldr	r3, [sp, #0]
 14c:	611f      	str	r7, [r3, #16]
 14e:	9802      	ldr	r0, [sp, #8]
 150:	b006      	add	sp, #24
 152:	bc38      	pop	{r3, r4, r5}
 154:	4698      	mov	r8, r3
 156:	46a1      	mov	r9, r4
 158:	46aa      	mov	sl, r5
 15a:	bdf0      	pop	{r4, r5, r6, r7, pc}

0000015c <_dtoa_r>:
 15c:	b5f0      	push	{r4, r5, r6, r7, lr}
 15e:	4657      	mov	r7, sl
 160:	464e      	mov	r6, r9
 162:	4645      	mov	r5, r8
 164:	b4e0      	push	{r5, r6, r7}
 166:	b0a1      	sub	sp, #132	@ 0x84
 168:	4682      	mov	sl, r0
 16a:	9303      	str	r3, [sp, #12]
 16c:	9c2b      	ldr	r4, [sp, #172]	@ 0xac
 16e:	9110      	str	r1, [sp, #64]	@ 0x40
 170:	9211      	str	r2, [sp, #68]	@ 0x44
 172:	6c02      	ldr	r2, [r0, #64]	@ 0x40
 174:	2a00      	cmp	r2, #0
 176:	d00d      	beq.n	194 <_dtoa_r+0x38>
 178:	6c40      	ldr	r0, [r0, #68]	@ 0x44
 17a:	6050      	str	r0, [r2, #4]
 17c:	4650      	mov	r0, sl
 17e:	6c41      	ldr	r1, [r0, #68]	@ 0x44
 180:	2001      	movs	r0, #1
 182:	4088      	lsls	r0, r1
 184:	6090      	str	r0, [r2, #8]
 186:	4650      	mov	r0, sl
 188:	1c11      	adds	r1, r2, #0
 18a:	f7ff fffe 	bl	0 <_Bfree>
 18e:	2000      	movs	r0, #0
 190:	4651      	mov	r1, sl
 192:	6408      	str	r0, [r1, #64]	@ 0x40
 194:	2080      	movs	r0, #128	@ 0x80
 196:	0600      	lsls	r0, r0, #24
 198:	9910      	ldr	r1, [sp, #64]	@ 0x40
 19a:	4008      	ands	r0, r1
 19c:	2800      	cmp	r0, #0
 19e:	d007      	beq.n	1b0 <_dtoa_r+0x54>
 1a0:	2001      	movs	r0, #1
 1a2:	6020      	str	r0, [r4, #0]
 1a4:	4801      	ldr	r0, [pc, #4]	@ (1ac <_dtoa_r+0x50>)
 1a6:	4001      	ands	r1, r0
 1a8:	9110      	str	r1, [sp, #64]	@ 0x40
 1aa:	e002      	b.n	1b2 <_dtoa_r+0x56>
 1ac:	7fffffff 	.word	0x7fffffff
 1b0:	6020      	str	r0, [r4, #0]
 1b2:	4910      	ldr	r1, [pc, #64]	@ (1f4 <_dtoa_r+0x98>)
 1b4:	9a10      	ldr	r2, [sp, #64]	@ 0x40
 1b6:	1c10      	adds	r0, r2, #0
 1b8:	4008      	ands	r0, r1
 1ba:	4288      	cmp	r0, r1
 1bc:	d124      	bne.n	208 <_dtoa_r+0xac>
 1be:	480e      	ldr	r0, [pc, #56]	@ (1f8 <_dtoa_r+0x9c>)
 1c0:	9b2a      	ldr	r3, [sp, #168]	@ 0xa8
 1c2:	6018      	str	r0, [r3, #0]
 1c4:	480d      	ldr	r0, [pc, #52]	@ (1fc <_dtoa_r+0xa0>)
 1c6:	4681      	mov	r9, r0
 1c8:	9911      	ldr	r1, [sp, #68]	@ 0x44
 1ca:	2900      	cmp	r1, #0
 1cc:	d105      	bne.n	1da <_dtoa_r+0x7e>
 1ce:	480c      	ldr	r0, [pc, #48]	@ (200 <_dtoa_r+0xa4>)
 1d0:	4002      	ands	r2, r0
 1d2:	2a00      	cmp	r2, #0
 1d4:	d101      	bne.n	1da <_dtoa_r+0x7e>
 1d6:	4a0b      	ldr	r2, [pc, #44]	@ (204 <_dtoa_r+0xa8>)
 1d8:	4691      	mov	r9, r2
 1da:	9b2c      	ldr	r3, [sp, #176]	@ 0xb0
 1dc:	2b00      	cmp	r3, #0
 1de:	d025      	beq.n	22c <_dtoa_r+0xd0>
 1e0:	4649      	mov	r1, r9
 1e2:	78c8      	ldrb	r0, [r1, #3]
 1e4:	3103      	adds	r1, #3
 1e6:	2800      	cmp	r0, #0
 1e8:	d000      	beq.n	1ec <_dtoa_r+0x90>
 1ea:	3105      	adds	r1, #5
 1ec:	9a2c      	ldr	r2, [sp, #176]	@ 0xb0
 1ee:	6011      	str	r1, [r2, #0]
 1f0:	e01c      	b.n	22c <_dtoa_r+0xd0>
 1f2:	0000      	.short	0x0000
 1f4:	7ff00000 	.word	0x7ff00000
 1f8:	0000270f 	.word	0x0000270f
 1fc:	0000000c 	.word	0x0000000c
 200:	000fffff 	.word	0x000fffff
 204:	00000000 	.word	0x00000000
 208:	4b0b      	ldr	r3, [pc, #44]	@ (238 <_dtoa_r+0xdc>)
 20a:	4a0a      	ldr	r2, [pc, #40]	@ (234 <_dtoa_r+0xd8>)
 20c:	9810      	ldr	r0, [sp, #64]	@ 0x40
 20e:	9911      	ldr	r1, [sp, #68]	@ 0x44
 210:	f7ff fffe 	bl	0 <__eqdf2>
 214:	2800      	cmp	r0, #0
 216:	d113      	bne.n	240 <_dtoa_r+0xe4>
 218:	2001      	movs	r0, #1
 21a:	9b2a      	ldr	r3, [sp, #168]	@ 0xa8
 21c:	6018      	str	r0, [r3, #0]
 21e:	4807      	ldr	r0, [pc, #28]	@ (23c <_dtoa_r+0xe0>)
 220:	4681      	mov	r9, r0
 222:	992c      	ldr	r1, [sp, #176]	@ 0xb0
 224:	2900      	cmp	r1, #0
 226:	d001      	beq.n	22c <_dtoa_r+0xd0>
 228:	3001      	adds	r0, #1
 22a:	6008      	str	r0, [r1, #0]
 22c:	4648      	mov	r0, r9
 22e:	f000 fe0a 	bl	e46 <_dtoa_r+0xcea>
	...
 23a:	0000      	.short	0x0000
 23c:	00000010 	.word	0x00000010
 240:	a802      	add	r0, sp, #8
 242:	9000      	str	r0, [sp, #0]
 244:	4650      	mov	r0, sl
 246:	9910      	ldr	r1, [sp, #64]	@ 0x40
 248:	9a11      	ldr	r2, [sp, #68]	@ 0x44
 24a:	ab01      	add	r3, sp, #4
 24c:	f7ff fffe 	bl	0 <_d2b>
 250:	9017      	str	r0, [sp, #92]	@ 0x5c
 252:	9a10      	ldr	r2, [sp, #64]	@ 0x40
 254:	0050      	lsls	r0, r2, #1
 256:	0d40      	lsrs	r0, r0, #21
 258:	4680      	mov	r8, r0
 25a:	2800      	cmp	r0, #0
 25c:	d018      	beq.n	290 <_dtoa_r+0x134>
 25e:	9810      	ldr	r0, [sp, #64]	@ 0x40
 260:	9911      	ldr	r1, [sp, #68]	@ 0x44
 262:	9012      	str	r0, [sp, #72]	@ 0x48
 264:	9113      	str	r1, [sp, #76]	@ 0x4c
 266:	4807      	ldr	r0, [pc, #28]	@ (284 <_dtoa_r+0x128>)
 268:	9912      	ldr	r1, [sp, #72]	@ 0x48
 26a:	4001      	ands	r1, r0
 26c:	9112      	str	r1, [sp, #72]	@ 0x48
 26e:	4806      	ldr	r0, [pc, #24]	@ (288 <_dtoa_r+0x12c>)
 270:	1c0a      	adds	r2, r1, #0
 272:	4302      	orrs	r2, r0
 274:	9212      	str	r2, [sp, #72]	@ 0x48
 276:	4b05      	ldr	r3, [pc, #20]	@ (28c <_dtoa_r+0x130>)
 278:	4498      	add	r8, r3
 27a:	2000      	movs	r0, #0
 27c:	9016      	str	r0, [sp, #88]	@ 0x58
 27e:	9e02      	ldr	r6, [sp, #8]
 280:	e036      	b.n	2f0 <_dtoa_r+0x194>
 282:	0000      	.short	0x0000
 284:	000fffff 	.word	0x000fffff
 288:	3ff00000 	.word	0x3ff00000
 28c:	fffffc01 	.word	0xfffffc01
 290:	9902      	ldr	r1, [sp, #8]
 292:	9801      	ldr	r0, [sp, #4]
 294:	180a      	adds	r2, r1, r0
 296:	4b08      	ldr	r3, [pc, #32]	@ (2b8 <_dtoa_r+0x15c>)
 298:	189b      	adds	r3, r3, r2
 29a:	4698      	mov	r8, r3
 29c:	1c0e      	adds	r6, r1, #0
 29e:	2b20      	cmp	r3, #32
 2a0:	dd0e      	ble.n	2c0 <_dtoa_r+0x164>
 2a2:	2040      	movs	r0, #64	@ 0x40
 2a4:	1ac0      	subs	r0, r0, r3
 2a6:	9c10      	ldr	r4, [sp, #64]	@ 0x40
 2a8:	4084      	lsls	r4, r0
 2aa:	4904      	ldr	r1, [pc, #16]	@ (2bc <_dtoa_r+0x160>)
 2ac:	1850      	adds	r0, r2, r1
 2ae:	9a11      	ldr	r2, [sp, #68]	@ 0x44
 2b0:	40c2      	lsrs	r2, r0
 2b2:	1c10      	adds	r0, r2, #0
 2b4:	4304      	orrs	r4, r0
 2b6:	e008      	b.n	2ca <_dtoa_r+0x16e>
 2b8:	00000432 	.word	0x00000432
 2bc:	00000412 	.word	0x00000412
 2c0:	2020      	movs	r0, #32
 2c2:	4643      	mov	r3, r8
 2c4:	1ac0      	subs	r0, r0, r3
 2c6:	9c11      	ldr	r4, [sp, #68]	@ 0x44
 2c8:	4084      	lsls	r4, r0
 2ca:	1c20      	adds	r0, r4, #0
 2cc:	f7ff fffe 	bl	0 <__floatsidf>
 2d0:	2c00      	cmp	r4, #0
 2d2:	da03      	bge.n	2dc <_dtoa_r+0x180>
 2d4:	4b32      	ldr	r3, [pc, #200]	@ (3a0 <_dtoa_r+0x244>)
 2d6:	4a31      	ldr	r2, [pc, #196]	@ (39c <_dtoa_r+0x240>)
 2d8:	f7ff fffe 	bl	0 <__adddf3>
 2dc:	9012      	str	r0, [sp, #72]	@ 0x48
 2de:	9113      	str	r1, [sp, #76]	@ 0x4c
 2e0:	4930      	ldr	r1, [pc, #192]	@ (3a4 <_dtoa_r+0x248>)
 2e2:	9812      	ldr	r0, [sp, #72]	@ 0x48
 2e4:	1841      	adds	r1, r0, r1
 2e6:	9112      	str	r1, [sp, #72]	@ 0x48
 2e8:	4a2f      	ldr	r2, [pc, #188]	@ (3a8 <_dtoa_r+0x24c>)
 2ea:	4490      	add	r8, r2
 2ec:	2301      	movs	r3, #1
 2ee:	9316      	str	r3, [sp, #88]	@ 0x58
 2f0:	4a2e      	ldr	r2, [pc, #184]	@ (3ac <_dtoa_r+0x250>)
 2f2:	4b2f      	ldr	r3, [pc, #188]	@ (3b0 <_dtoa_r+0x254>)
 2f4:	9812      	ldr	r0, [sp, #72]	@ 0x48
 2f6:	9913      	ldr	r1, [sp, #76]	@ 0x4c
 2f8:	f7ff fffe 	bl	0 <__subdf3>
 2fc:	4a2d      	ldr	r2, [pc, #180]	@ (3b4 <_dtoa_r+0x258>)
 2fe:	4b2e      	ldr	r3, [pc, #184]	@ (3b8 <_dtoa_r+0x25c>)
 300:	f7ff fffe 	bl	0 <__muldf3>
 304:	4a2d      	ldr	r2, [pc, #180]	@ (3bc <_dtoa_r+0x260>)
 306:	4b2e      	ldr	r3, [pc, #184]	@ (3c0 <_dtoa_r+0x264>)
 308:	f7ff fffe 	bl	0 <__adddf3>
 30c:	1c0d      	adds	r5, r1, #0
 30e:	1c04      	adds	r4, r0, #0
 310:	4640      	mov	r0, r8
 312:	f7ff fffe 	bl	0 <__floatsidf>
 316:	4a2b      	ldr	r2, [pc, #172]	@ (3c4 <_dtoa_r+0x268>)
 318:	4b2b      	ldr	r3, [pc, #172]	@ (3c8 <_dtoa_r+0x26c>)
 31a:	f7ff fffe 	bl	0 <__muldf3>
 31e:	1c0b      	adds	r3, r1, #0
 320:	1c02      	adds	r2, r0, #0
 322:	1c29      	adds	r1, r5, #0
 324:	1c20      	adds	r0, r4, #0
 326:	f7ff fffe 	bl	0 <__adddf3>
 32a:	901b      	str	r0, [sp, #108]	@ 0x6c
 32c:	911c      	str	r1, [sp, #112]	@ 0x70
 32e:	f7ff fffe 	bl	0 <__fixdfsi>
 332:	9009      	str	r0, [sp, #36]	@ 0x24
 334:	4a25      	ldr	r2, [pc, #148]	@ (3cc <_dtoa_r+0x270>)
 336:	4b26      	ldr	r3, [pc, #152]	@ (3d0 <_dtoa_r+0x274>)
 338:	981b      	ldr	r0, [sp, #108]	@ 0x6c
 33a:	991c      	ldr	r1, [sp, #112]	@ 0x70
 33c:	f7ff fffe 	bl	0 <__ltdf2>
 340:	2800      	cmp	r0, #0
 342:	da0d      	bge.n	360 <_dtoa_r+0x204>
 344:	9809      	ldr	r0, [sp, #36]	@ 0x24
 346:	f7ff fffe 	bl	0 <__floatsidf>
 34a:	1c0b      	adds	r3, r1, #0
 34c:	1c02      	adds	r2, r0, #0
 34e:	981b      	ldr	r0, [sp, #108]	@ 0x6c
 350:	991c      	ldr	r1, [sp, #112]	@ 0x70
 352:	f7ff fffe 	bl	0 <__nedf2>
 356:	2800      	cmp	r0, #0
 358:	d002      	beq.n	360 <_dtoa_r+0x204>
 35a:	9809      	ldr	r0, [sp, #36]	@ 0x24
 35c:	3801      	subs	r0, #1
 35e:	9009      	str	r0, [sp, #36]	@ 0x24
 360:	2101      	movs	r1, #1
 362:	910b      	str	r1, [sp, #44]	@ 0x2c
 364:	9a09      	ldr	r2, [sp, #36]	@ 0x24
 366:	2a16      	cmp	r2, #22
 368:	d80f      	bhi.n	38a <_dtoa_r+0x22e>
 36a:	491a      	ldr	r1, [pc, #104]	@ (3d4 <_dtoa_r+0x278>)
 36c:	00d0      	lsls	r0, r2, #3
 36e:	1840      	adds	r0, r0, r1
 370:	6802      	ldr	r2, [r0, #0]
 372:	6843      	ldr	r3, [r0, #4]
 374:	9810      	ldr	r0, [sp, #64]	@ 0x40
 376:	9911      	ldr	r1, [sp, #68]	@ 0x44
 378:	f7ff fffe 	bl	0 <__ltdf2>
 37c:	2800      	cmp	r0, #0
 37e:	da02      	bge.n	386 <_dtoa_r+0x22a>
 380:	9b09      	ldr	r3, [sp, #36]	@ 0x24
 382:	3b01      	subs	r3, #1
 384:	9309      	str	r3, [sp, #36]	@ 0x24
 386:	2000      	movs	r0, #0
 388:	900b      	str	r0, [sp, #44]	@ 0x2c
 38a:	4641      	mov	r1, r8
 38c:	1a70      	subs	r0, r6, r1
 38e:	1e44      	subs	r4, r0, #1
 390:	2c00      	cmp	r4, #0
 392:	db21      	blt.n	3d8 <_dtoa_r+0x27c>
 394:	2200      	movs	r2, #0
 396:	9204      	str	r2, [sp, #16]
 398:	940d      	str	r4, [sp, #52]	@ 0x34
 39a:	e021      	b.n	3e0 <_dtoa_r+0x284>
 39c:	41f00000 	.word	0x41f00000
 3a0:	00000000 	.word	0x00000000
 3a4:	fe100000 	.word	0xfe100000
 3a8:	fffffbcd 	.word	0xfffffbcd
 3ac:	3ff80000 	.word	0x3ff80000
 3b0:	00000000 	.word	0x00000000
 3b4:	3fd287a7 	.word	0x3fd287a7
 3b8:	636f4361 	.word	0x636f4361
 3bc:	3fc68a28 	.word	0x3fc68a28
 3c0:	8b60c8b3 	.word	0x8b60c8b3
 3c4:	3fd34413 	.word	0x3fd34413
 3c8:	509f79fb 	.word	0x509f79fb
	...
 3d8:	4264      	negs	r4, r4
 3da:	9404      	str	r4, [sp, #16]
 3dc:	2300      	movs	r3, #0
 3de:	930d      	str	r3, [sp, #52]	@ 0x34
 3e0:	9809      	ldr	r0, [sp, #36]	@ 0x24
 3e2:	2800      	cmp	r0, #0
 3e4:	db06      	blt.n	3f4 <_dtoa_r+0x298>
 3e6:	2100      	movs	r1, #0
 3e8:	9105      	str	r1, [sp, #20]
 3ea:	900e      	str	r0, [sp, #56]	@ 0x38
 3ec:	9a0d      	ldr	r2, [sp, #52]	@ 0x34
 3ee:	1812      	adds	r2, r2, r0
 3f0:	920d      	str	r2, [sp, #52]	@ 0x34
 3f2:	e007      	b.n	404 <_dtoa_r+0x2a8>
 3f4:	9b04      	ldr	r3, [sp, #16]
 3f6:	9809      	ldr	r0, [sp, #36]	@ 0x24
 3f8:	1a1b      	subs	r3, r3, r0
 3fa:	9304      	str	r3, [sp, #16]
 3fc:	4241      	negs	r1, r0
 3fe:	9105      	str	r1, [sp, #20]
 400:	2200      	movs	r2, #0
 402:	920e      	str	r2, [sp, #56]	@ 0x38
 404:	9b03      	ldr	r3, [sp, #12]
 406:	2b09      	cmp	r3, #9
 408:	d901      	bls.n	40e <_dtoa_r+0x2b2>
 40a:	2000      	movs	r0, #0
 40c:	9003      	str	r0, [sp, #12]
 40e:	2501      	movs	r5, #1
 410:	9903      	ldr	r1, [sp, #12]
 412:	2905      	cmp	r1, #5
 414:	dd02      	ble.n	41c <_dtoa_r+0x2c0>
 416:	3904      	subs	r1, #4
 418:	9103      	str	r1, [sp, #12]
 41a:	2500      	movs	r5, #0
 41c:	2201      	movs	r2, #1
 41e:	920c      	str	r2, [sp, #48]	@ 0x30
 420:	9b03      	ldr	r3, [sp, #12]
 422:	2b05      	cmp	r3, #5
 424:	d837      	bhi.n	496 <_dtoa_r+0x33a>
 426:	0098      	lsls	r0, r3, #2
 428:	4901      	ldr	r1, [pc, #4]	@ (430 <_dtoa_r+0x2d4>)
 42a:	1840      	adds	r0, r0, r1
 42c:	6800      	ldr	r0, [r0, #0]
 42e:	4687      	mov	pc, r0
 430:	00000434 	.word	0x00000434
 434:	0000044c 	.word	0x0000044c
 438:	0000044c 	.word	0x0000044c
 43c:	0000045e 	.word	0x0000045e
 440:	0000047a 	.word	0x0000047a
 444:	00000462 	.word	0x00000462
 448:	0000047e 	.word	0x0000047e
 44c:	2001      	movs	r0, #1
 44e:	4240      	negs	r0, r0
 450:	9006      	str	r0, [sp, #24]
 452:	9008      	str	r0, [sp, #32]
 454:	2112      	movs	r1, #18
 456:	4688      	mov	r8, r1
 458:	2200      	movs	r2, #0
 45a:	9229      	str	r2, [sp, #164]	@ 0xa4
 45c:	e01b      	b.n	496 <_dtoa_r+0x33a>
 45e:	2300      	movs	r3, #0
 460:	930c      	str	r3, [sp, #48]	@ 0x30
 462:	9829      	ldr	r0, [sp, #164]	@ 0xa4
 464:	2800      	cmp	r0, #0
 466:	dc01      	bgt.n	46c <_dtoa_r+0x310>
 468:	2101      	movs	r1, #1
 46a:	9129      	str	r1, [sp, #164]	@ 0xa4
 46c:	9a29      	ldr	r2, [sp, #164]	@ 0xa4
 46e:	4690      	mov	r8, r2
 470:	4643      	mov	r3, r8
 472:	9308      	str	r3, [sp, #32]
 474:	4640      	mov	r0, r8
 476:	9006      	str	r0, [sp, #24]
 478:	e00d      	b.n	496 <_dtoa_r+0x33a>
 47a:	2100      	movs	r1, #0
 47c:	910c      	str	r1, [sp, #48]	@ 0x30
 47e:	9a29      	ldr	r2, [sp, #164]	@ 0xa4
 480:	9b09      	ldr	r3, [sp, #36]	@ 0x24
 482:	18d0      	adds	r0, r2, r3
 484:	1c41      	adds	r1, r0, #1
 486:	4688      	mov	r8, r1
 488:	4642      	mov	r2, r8
 48a:	9206      	str	r2, [sp, #24]
 48c:	9008      	str	r0, [sp, #32]
 48e:	2900      	cmp	r1, #0
 490:	dc01      	bgt.n	496 <_dtoa_r+0x33a>
 492:	2301      	movs	r3, #1
 494:	4698      	mov	r8, r3
 496:	2404      	movs	r4, #4
 498:	2000      	movs	r0, #0
 49a:	4651      	mov	r1, sl
 49c:	6448      	str	r0, [r1, #68]	@ 0x44
 49e:	4642      	mov	r2, r8
 4a0:	2a17      	cmp	r2, #23
 4a2:	d908      	bls.n	4b6 <_dtoa_r+0x35a>
 4a4:	2100      	movs	r1, #0
 4a6:	3101      	adds	r1, #1
 4a8:	0064      	lsls	r4, r4, #1
 4aa:	1c20      	adds	r0, r4, #0
 4ac:	3014      	adds	r0, #20
 4ae:	4540      	cmp	r0, r8
 4b0:	d9f9      	bls.n	4a6 <_dtoa_r+0x34a>
 4b2:	4653      	mov	r3, sl
 4b4:	6459      	str	r1, [r3, #68]	@ 0x44
 4b6:	4650      	mov	r0, sl
 4b8:	6c41      	ldr	r1, [r0, #68]	@ 0x44
 4ba:	f7ff fffe 	bl	0 <_Balloc>
 4be:	4651      	mov	r1, sl
 4c0:	6408      	str	r0, [r1, #64]	@ 0x40
 4c2:	901d      	str	r0, [sp, #116]	@ 0x74
 4c4:	4681      	mov	r9, r0
 4c6:	9a06      	ldr	r2, [sp, #24]
 4c8:	2a0e      	cmp	r2, #14
 4ca:	d900      	bls.n	4ce <_dtoa_r+0x372>
 4cc:	e1b8      	b.n	840 <_dtoa_r+0x6e4>
 4ce:	2d00      	cmp	r5, #0
 4d0:	d100      	bne.n	4d4 <_dtoa_r+0x378>
 4d2:	e1b5      	b.n	840 <_dtoa_r+0x6e4>
 4d4:	9810      	ldr	r0, [sp, #64]	@ 0x40
 4d6:	9911      	ldr	r1, [sp, #68]	@ 0x44
 4d8:	901e      	str	r0, [sp, #120]	@ 0x78
 4da:	911f      	str	r1, [sp, #124]	@ 0x7c
 4dc:	9012      	str	r0, [sp, #72]	@ 0x48
 4de:	9113      	str	r1, [sp, #76]	@ 0x4c
 4e0:	9909      	ldr	r1, [sp, #36]	@ 0x24
 4e2:	910a      	str	r1, [sp, #40]	@ 0x28
 4e4:	9207      	str	r2, [sp, #28]
 4e6:	2702      	movs	r7, #2
 4e8:	2900      	cmp	r1, #0
 4ea:	dd3b      	ble.n	564 <_dtoa_r+0x408>
 4ec:	481b      	ldr	r0, [pc, #108]	@ (55c <_dtoa_r+0x400>)
 4ee:	220f      	movs	r2, #15
 4f0:	4011      	ands	r1, r2
 4f2:	00c9      	lsls	r1, r1, #3
 4f4:	180b      	adds	r3, r1, r0
 4f6:	6818      	ldr	r0, [r3, #0]
 4f8:	6859      	ldr	r1, [r3, #4]
 4fa:	901b      	str	r0, [sp, #108]	@ 0x6c
 4fc:	911c      	str	r1, [sp, #112]	@ 0x70
 4fe:	9909      	ldr	r1, [sp, #36]	@ 0x24
 500:	110c      	asrs	r4, r1, #4
 502:	2010      	movs	r0, #16
 504:	4020      	ands	r0, r4
 506:	2800      	cmp	r0, #0
 508:	d00a      	beq.n	520 <_dtoa_r+0x3c4>
 50a:	4014      	ands	r4, r2
 50c:	4814      	ldr	r0, [pc, #80]	@ (560 <_dtoa_r+0x404>)
 50e:	6a02      	ldr	r2, [r0, #32]
 510:	6a43      	ldr	r3, [r0, #36]	@ 0x24
 512:	981e      	ldr	r0, [sp, #120]	@ 0x78
 514:	991f      	ldr	r1, [sp, #124]	@ 0x7c
 516:	f7ff fffe 	bl	0 <__divdf3>
 51a:	9010      	str	r0, [sp, #64]	@ 0x40
 51c:	9111      	str	r1, [sp, #68]	@ 0x44
 51e:	2703      	movs	r7, #3
 520:	2c00      	cmp	r4, #0
 522:	d011      	beq.n	548 <_dtoa_r+0x3ec>
 524:	4d0e      	ldr	r5, [pc, #56]	@ (560 <_dtoa_r+0x404>)
 526:	2001      	movs	r0, #1
 528:	4020      	ands	r0, r4
 52a:	2800      	cmp	r0, #0
 52c:	d008      	beq.n	540 <_dtoa_r+0x3e4>
 52e:	3701      	adds	r7, #1
 530:	682a      	ldr	r2, [r5, #0]
 532:	686b      	ldr	r3, [r5, #4]
 534:	981b      	ldr	r0, [sp, #108]	@ 0x6c
 536:	991c      	ldr	r1, [sp, #112]	@ 0x70
 538:	f7ff fffe 	bl	0 <__muldf3>
 53c:	901b      	str	r0, [sp, #108]	@ 0x6c
 53e:	911c      	str	r1, [sp, #112]	@ 0x70
 540:	1064      	asrs	r4, r4, #1
 542:	3508      	adds	r5, #8
 544:	2c00      	cmp	r4, #0
 546:	d1ee      	bne.n	526 <_dtoa_r+0x3ca>
 548:	9810      	ldr	r0, [sp, #64]	@ 0x40
 54a:	9911      	ldr	r1, [sp, #68]	@ 0x44
 54c:	9a1b      	ldr	r2, [sp, #108]	@ 0x6c
 54e:	9b1c      	ldr	r3, [sp, #112]	@ 0x70
 550:	f7ff fffe 	bl	0 <__divdf3>
 554:	9010      	str	r0, [sp, #64]	@ 0x40
 556:	9111      	str	r1, [sp, #68]	@ 0x44
 558:	e02a      	b.n	5b0 <_dtoa_r+0x454>
	...
 562:	0000      	.short	0x0000
 564:	9a09      	ldr	r2, [sp, #36]	@ 0x24
 566:	4256      	negs	r6, r2
 568:	2e00      	cmp	r6, #0
 56a:	d021      	beq.n	5b0 <_dtoa_r+0x454>
 56c:	493a      	ldr	r1, [pc, #232]	@ (658 <_dtoa_r+0x4fc>)
 56e:	200f      	movs	r0, #15
 570:	4030      	ands	r0, r6
 572:	00c0      	lsls	r0, r0, #3
 574:	1840      	adds	r0, r0, r1
 576:	6841      	ldr	r1, [r0, #4]
 578:	6800      	ldr	r0, [r0, #0]
 57a:	9a1e      	ldr	r2, [sp, #120]	@ 0x78
 57c:	9b1f      	ldr	r3, [sp, #124]	@ 0x7c
 57e:	f7ff fffe 	bl	0 <__muldf3>
 582:	9010      	str	r0, [sp, #64]	@ 0x40
 584:	9111      	str	r1, [sp, #68]	@ 0x44
 586:	1134      	asrs	r4, r6, #4
 588:	2c00      	cmp	r4, #0
 58a:	d011      	beq.n	5b0 <_dtoa_r+0x454>
 58c:	4d33      	ldr	r5, [pc, #204]	@ (65c <_dtoa_r+0x500>)
 58e:	2001      	movs	r0, #1
 590:	4020      	ands	r0, r4
 592:	2800      	cmp	r0, #0
 594:	d008      	beq.n	5a8 <_dtoa_r+0x44c>
 596:	3701      	adds	r7, #1
 598:	6828      	ldr	r0, [r5, #0]
 59a:	6869      	ldr	r1, [r5, #4]
 59c:	9a10      	ldr	r2, [sp, #64]	@ 0x40
 59e:	9b11      	ldr	r3, [sp, #68]	@ 0x44
 5a0:	f7ff fffe 	bl	0 <__muldf3>
 5a4:	9010      	str	r0, [sp, #64]	@ 0x40
 5a6:	9111      	str	r1, [sp, #68]	@ 0x44
 5a8:	1064      	asrs	r4, r4, #1
 5aa:	3508      	adds	r5, #8
 5ac:	2c00      	cmp	r4, #0
 5ae:	d1ee      	bne.n	58e <_dtoa_r+0x432>
 5b0:	9b0b      	ldr	r3, [sp, #44]	@ 0x2c
 5b2:	2b00      	cmp	r3, #0
 5b4:	d01b      	beq.n	5ee <_dtoa_r+0x492>
 5b6:	4a2a      	ldr	r2, [pc, #168]	@ (660 <_dtoa_r+0x504>)
 5b8:	4b2a      	ldr	r3, [pc, #168]	@ (664 <_dtoa_r+0x508>)
 5ba:	9810      	ldr	r0, [sp, #64]	@ 0x40
 5bc:	9911      	ldr	r1, [sp, #68]	@ 0x44
 5be:	f7ff fffe 	bl	0 <__ltdf2>
 5c2:	2800      	cmp	r0, #0
 5c4:	da13      	bge.n	5ee <_dtoa_r+0x492>
 5c6:	9806      	ldr	r0, [sp, #24]
 5c8:	2800      	cmp	r0, #0
 5ca:	dd10      	ble.n	5ee <_dtoa_r+0x492>
 5cc:	9908      	ldr	r1, [sp, #32]
 5ce:	2900      	cmp	r1, #0
 5d0:	dc00      	bgt.n	5d4 <_dtoa_r+0x478>
 5d2:	e12b      	b.n	82c <_dtoa_r+0x6d0>
 5d4:	9106      	str	r1, [sp, #24]
 5d6:	9a09      	ldr	r2, [sp, #36]	@ 0x24
 5d8:	3a01      	subs	r2, #1
 5da:	9209      	str	r2, [sp, #36]	@ 0x24
 5dc:	4822      	ldr	r0, [pc, #136]	@ (668 <_dtoa_r+0x50c>)
 5de:	4923      	ldr	r1, [pc, #140]	@ (66c <_dtoa_r+0x510>)
 5e0:	9a10      	ldr	r2, [sp, #64]	@ 0x40
 5e2:	9b11      	ldr	r3, [sp, #68]	@ 0x44
 5e4:	f7ff fffe 	bl	0 <__muldf3>
 5e8:	9010      	str	r0, [sp, #64]	@ 0x40
 5ea:	9111      	str	r1, [sp, #68]	@ 0x44
 5ec:	3701      	adds	r7, #1
 5ee:	1c38      	adds	r0, r7, #0
 5f0:	f7ff fffe 	bl	0 <__floatsidf>
 5f4:	9a10      	ldr	r2, [sp, #64]	@ 0x40
 5f6:	9b11      	ldr	r3, [sp, #68]	@ 0x44
 5f8:	f7ff fffe 	bl	0 <__muldf3>
 5fc:	4a1c      	ldr	r2, [pc, #112]	@ (670 <_dtoa_r+0x514>)
 5fe:	4b1d      	ldr	r3, [pc, #116]	@ (674 <_dtoa_r+0x518>)
 600:	f7ff fffe 	bl	0 <__adddf3>
 604:	9014      	str	r0, [sp, #80]	@ 0x50
 606:	9115      	str	r1, [sp, #84]	@ 0x54
 608:	481b      	ldr	r0, [pc, #108]	@ (678 <_dtoa_r+0x51c>)
 60a:	9b14      	ldr	r3, [sp, #80]	@ 0x50
 60c:	1818      	adds	r0, r3, r0
 60e:	9014      	str	r0, [sp, #80]	@ 0x50
 610:	9906      	ldr	r1, [sp, #24]
 612:	2900      	cmp	r1, #0
 614:	d136      	bne.n	684 <_dtoa_r+0x528>
 616:	2200      	movs	r2, #0
 618:	9219      	str	r2, [sp, #100]	@ 0x64
 61a:	2300      	movs	r3, #0
 61c:	931a      	str	r3, [sp, #104]	@ 0x68
 61e:	4a17      	ldr	r2, [pc, #92]	@ (67c <_dtoa_r+0x520>)
 620:	4b17      	ldr	r3, [pc, #92]	@ (680 <_dtoa_r+0x524>)
 622:	9810      	ldr	r0, [sp, #64]	@ 0x40
 624:	9911      	ldr	r1, [sp, #68]	@ 0x44
 626:	f7ff fffe 	bl	0 <__subdf3>
 62a:	1c0d      	adds	r5, r1, #0
 62c:	1c04      	adds	r4, r0, #0
 62e:	9a14      	ldr	r2, [sp, #80]	@ 0x50
 630:	9b15      	ldr	r3, [sp, #84]	@ 0x54
 632:	f7ff fffe 	bl	0 <__gtdf2>
 636:	2800      	cmp	r0, #0
 638:	dd00      	ble.n	63c <_dtoa_r+0x4e0>
 63a:	e2bc      	b.n	bb6 <_dtoa_r+0xa5a>
 63c:	9814      	ldr	r0, [sp, #80]	@ 0x50
 63e:	9915      	ldr	r1, [sp, #84]	@ 0x54
 640:	f7ff fffe 	bl	0 <__negdf2>
 644:	1c0b      	adds	r3, r1, #0
 646:	1c02      	adds	r2, r0, #0
 648:	1c29      	adds	r1, r5, #0
 64a:	1c20      	adds	r0, r4, #0
 64c:	f7ff fffe 	bl	0 <__ltdf2>
 650:	2800      	cmp	r0, #0
 652:	da00      	bge.n	656 <_dtoa_r+0x4fa>
 654:	e2ab      	b.n	bae <_dtoa_r+0xa52>
 656:	e0e9      	b.n	82c <_dtoa_r+0x6d0>
	...
 660:	3ff00000 	.word	0x3ff00000
 664:	00000000 	.word	0x00000000
 668:	40240000 	.word	0x40240000
 66c:	00000000 	.word	0x00000000
 670:	401c0000 	.word	0x401c0000
 674:	00000000 	.word	0x00000000
 678:	fcc00000 	.word	0xfcc00000
 67c:	40140000 	.word	0x40140000
 680:	00000000 	.word	0x00000000
 684:	980c      	ldr	r0, [sp, #48]	@ 0x30
 686:	2800      	cmp	r0, #0
 688:	d064      	beq.n	754 <_dtoa_r+0x5f8>
 68a:	490a      	ldr	r1, [pc, #40]	@ (6b4 <_dtoa_r+0x558>)
 68c:	9806      	ldr	r0, [sp, #24]
 68e:	3801      	subs	r0, #1
 690:	00c0      	lsls	r0, r0, #3
 692:	1840      	adds	r0, r0, r1
 694:	6802      	ldr	r2, [r0, #0]
 696:	6843      	ldr	r3, [r0, #4]
 698:	4807      	ldr	r0, [pc, #28]	@ (6b8 <_dtoa_r+0x55c>)
 69a:	4908      	ldr	r1, [pc, #32]	@ (6bc <_dtoa_r+0x560>)
 69c:	f7ff fffe 	bl	0 <__divdf3>
 6a0:	9a14      	ldr	r2, [sp, #80]	@ 0x50
 6a2:	9b15      	ldr	r3, [sp, #84]	@ 0x54
 6a4:	f7ff fffe 	bl	0 <__subdf3>
 6a8:	9014      	str	r0, [sp, #80]	@ 0x50
 6aa:	9115      	str	r1, [sp, #84]	@ 0x54
 6ac:	2100      	movs	r1, #0
 6ae:	4688      	mov	r8, r1
 6b0:	e016      	b.n	6e0 <_dtoa_r+0x584>
	...
 6ba:	3fe0      	.short	0x3fe0
 6bc:	00000000 	.word	0x00000000
 6c0:	4921      	ldr	r1, [pc, #132]	@ (748 <_dtoa_r+0x5ec>)
 6c2:	4820      	ldr	r0, [pc, #128]	@ (744 <_dtoa_r+0x5e8>)
 6c4:	9a14      	ldr	r2, [sp, #80]	@ 0x50
 6c6:	9b15      	ldr	r3, [sp, #84]	@ 0x54
 6c8:	f7ff fffe 	bl	0 <__muldf3>
 6cc:	9014      	str	r0, [sp, #80]	@ 0x50
 6ce:	9115      	str	r1, [sp, #84]	@ 0x54
 6d0:	491d      	ldr	r1, [pc, #116]	@ (748 <_dtoa_r+0x5ec>)
 6d2:	481c      	ldr	r0, [pc, #112]	@ (744 <_dtoa_r+0x5e8>)
 6d4:	1c2b      	adds	r3, r5, #0
 6d6:	1c22      	adds	r2, r4, #0
 6d8:	f7ff fffe 	bl	0 <__muldf3>
 6dc:	9010      	str	r0, [sp, #64]	@ 0x40
 6de:	9111      	str	r1, [sp, #68]	@ 0x44
 6e0:	9810      	ldr	r0, [sp, #64]	@ 0x40
 6e2:	9911      	ldr	r1, [sp, #68]	@ 0x44
 6e4:	f7ff fffe 	bl	0 <__fixdfsi>
 6e8:	1c06      	adds	r6, r0, #0
 6ea:	f7ff fffe 	bl	0 <__floatsidf>
 6ee:	1c0b      	adds	r3, r1, #0
 6f0:	1c02      	adds	r2, r0, #0
 6f2:	9810      	ldr	r0, [sp, #64]	@ 0x40
 6f4:	9911      	ldr	r1, [sp, #68]	@ 0x44
 6f6:	f7ff fffe 	bl	0 <__subdf3>
 6fa:	1c0d      	adds	r5, r1, #0
 6fc:	1c04      	adds	r4, r0, #0
 6fe:	1c30      	adds	r0, r6, #0
 700:	3030      	adds	r0, #48	@ 0x30
 702:	464a      	mov	r2, r9
 704:	7010      	strb	r0, [r2, #0]
 706:	2301      	movs	r3, #1
 708:	4499      	add	r9, r3
 70a:	1c29      	adds	r1, r5, #0
 70c:	1c20      	adds	r0, r4, #0
 70e:	9a14      	ldr	r2, [sp, #80]	@ 0x50
 710:	9b15      	ldr	r3, [sp, #84]	@ 0x54
 712:	f7ff fffe 	bl	0 <__ltdf2>
 716:	2800      	cmp	r0, #0
 718:	da00      	bge.n	71c <_dtoa_r+0x5c0>
 71a:	e384      	b.n	e26 <_dtoa_r+0xcca>
 71c:	480b      	ldr	r0, [pc, #44]	@ (74c <_dtoa_r+0x5f0>)
 71e:	490c      	ldr	r1, [pc, #48]	@ (750 <_dtoa_r+0x5f4>)
 720:	1c2b      	adds	r3, r5, #0
 722:	1c22      	adds	r2, r4, #0
 724:	f7ff fffe 	bl	0 <__subdf3>
 728:	9a14      	ldr	r2, [sp, #80]	@ 0x50
 72a:	9b15      	ldr	r3, [sp, #84]	@ 0x54
 72c:	f7ff fffe 	bl	0 <__ltdf2>
 730:	2800      	cmp	r0, #0
 732:	da00      	bge.n	736 <_dtoa_r+0x5da>
 734:	e104      	b.n	940 <_dtoa_r+0x7e4>
 736:	2001      	movs	r0, #1
 738:	4480      	add	r8, r0
 73a:	9906      	ldr	r1, [sp, #24]
 73c:	4588      	cmp	r8, r1
 73e:	dbbf      	blt.n	6c0 <_dtoa_r+0x564>
 740:	e074      	b.n	82c <_dtoa_r+0x6d0>
 742:	0000      	.short	0x0000
 744:	40240000 	.word	0x40240000
 748:	00000000 	.word	0x00000000
 74c:	3ff00000 	.word	0x3ff00000
 750:	00000000 	.word	0x00000000
 754:	4907      	ldr	r1, [pc, #28]	@ (774 <_dtoa_r+0x618>)
 756:	9806      	ldr	r0, [sp, #24]
 758:	3801      	subs	r0, #1
 75a:	00c0      	lsls	r0, r0, #3
 75c:	1840      	adds	r0, r0, r1
 75e:	6841      	ldr	r1, [r0, #4]
 760:	6800      	ldr	r0, [r0, #0]
 762:	9a14      	ldr	r2, [sp, #80]	@ 0x50
 764:	9b15      	ldr	r3, [sp, #84]	@ 0x54
 766:	f7ff fffe 	bl	0 <__muldf3>
 76a:	9014      	str	r0, [sp, #80]	@ 0x50
 76c:	9115      	str	r1, [sp, #84]	@ 0x54
 76e:	2201      	movs	r2, #1
 770:	4690      	mov	r8, r2
 772:	e00b      	b.n	78c <_dtoa_r+0x630>
 774:	00000000 	.word	0x00000000
 778:	2301      	movs	r3, #1
 77a:	4498      	add	r8, r3
 77c:	4928      	ldr	r1, [pc, #160]	@ (820 <_dtoa_r+0x6c4>)
 77e:	4827      	ldr	r0, [pc, #156]	@ (81c <_dtoa_r+0x6c0>)
 780:	1c2b      	adds	r3, r5, #0
 782:	1c22      	adds	r2, r4, #0
 784:	f7ff fffe 	bl	0 <__muldf3>
 788:	9010      	str	r0, [sp, #64]	@ 0x40
 78a:	9111      	str	r1, [sp, #68]	@ 0x44
 78c:	9810      	ldr	r0, [sp, #64]	@ 0x40
 78e:	9911      	ldr	r1, [sp, #68]	@ 0x44
 790:	f7ff fffe 	bl	0 <__fixdfsi>
 794:	1c06      	adds	r6, r0, #0
 796:	f7ff fffe 	bl	0 <__floatsidf>
 79a:	1c0b      	adds	r3, r1, #0
 79c:	1c02      	adds	r2, r0, #0
 79e:	9810      	ldr	r0, [sp, #64]	@ 0x40
 7a0:	9911      	ldr	r1, [sp, #68]	@ 0x44
 7a2:	f7ff fffe 	bl	0 <__subdf3>
 7a6:	1c0d      	adds	r5, r1, #0
 7a8:	1c04      	adds	r4, r0, #0
 7aa:	1c30      	adds	r0, r6, #0
 7ac:	3030      	adds	r0, #48	@ 0x30
 7ae:	4649      	mov	r1, r9
 7b0:	7008      	strb	r0, [r1, #0]
 7b2:	2201      	movs	r2, #1
 7b4:	4491      	add	r9, r2
 7b6:	9b06      	ldr	r3, [sp, #24]
 7b8:	4598      	cmp	r8, r3
 7ba:	d1dd      	bne.n	778 <_dtoa_r+0x61c>
 7bc:	4e19      	ldr	r6, [pc, #100]	@ (824 <_dtoa_r+0x6c8>)
 7be:	4f1a      	ldr	r7, [pc, #104]	@ (828 <_dtoa_r+0x6cc>)
 7c0:	1c39      	adds	r1, r7, #0
 7c2:	1c30      	adds	r0, r6, #0
 7c4:	9a14      	ldr	r2, [sp, #80]	@ 0x50
 7c6:	9b15      	ldr	r3, [sp, #84]	@ 0x54
 7c8:	f7ff fffe 	bl	0 <__adddf3>
 7cc:	1c0b      	adds	r3, r1, #0
 7ce:	1c02      	adds	r2, r0, #0
 7d0:	1c29      	adds	r1, r5, #0
 7d2:	1c20      	adds	r0, r4, #0
 7d4:	f7ff fffe 	bl	0 <__gtdf2>
 7d8:	2800      	cmp	r0, #0
 7da:	dd00      	ble.n	7de <_dtoa_r+0x682>
 7dc:	e0b0      	b.n	940 <_dtoa_r+0x7e4>
 7de:	1c39      	adds	r1, r7, #0
 7e0:	1c30      	adds	r0, r6, #0
 7e2:	9a14      	ldr	r2, [sp, #80]	@ 0x50
 7e4:	9b15      	ldr	r3, [sp, #84]	@ 0x54
 7e6:	f7ff fffe 	bl	0 <__subdf3>
 7ea:	1c0b      	adds	r3, r1, #0
 7ec:	1c02      	adds	r2, r0, #0
 7ee:	1c29      	adds	r1, r5, #0
 7f0:	1c20      	adds	r0, r4, #0
 7f2:	f7ff fffe 	bl	0 <__ltdf2>
 7f6:	2800      	cmp	r0, #0
 7f8:	da18      	bge.n	82c <_dtoa_r+0x6d0>
 7fa:	2001      	movs	r0, #1
 7fc:	4240      	negs	r0, r0
 7fe:	4481      	add	r9, r0
 800:	4649      	mov	r1, r9
 802:	7809      	ldrb	r1, [r1, #0]
 804:	2930      	cmp	r1, #48	@ 0x30
 806:	d000      	beq.n	80a <_dtoa_r+0x6ae>
 808:	e0ad      	b.n	966 <_dtoa_r+0x80a>
 80a:	2201      	movs	r2, #1
 80c:	4252      	negs	r2, r2
 80e:	4491      	add	r9, r2
 810:	464b      	mov	r3, r9
 812:	781b      	ldrb	r3, [r3, #0]
 814:	2b30      	cmp	r3, #48	@ 0x30
 816:	d0f8      	beq.n	80a <_dtoa_r+0x6ae>
 818:	e0a5      	b.n	966 <_dtoa_r+0x80a>
 81a:	0000      	.short	0x0000
 81c:	40240000 	.word	0x40240000
 820:	00000000 	.word	0x00000000
 824:	3fe00000 	.word	0x3fe00000
 828:	00000000 	.word	0x00000000
 82c:	991d      	ldr	r1, [sp, #116]	@ 0x74
 82e:	4689      	mov	r9, r1
 830:	9a12      	ldr	r2, [sp, #72]	@ 0x48
 832:	9b13      	ldr	r3, [sp, #76]	@ 0x4c
 834:	9210      	str	r2, [sp, #64]	@ 0x40
 836:	9311      	str	r3, [sp, #68]	@ 0x44
 838:	9b0a      	ldr	r3, [sp, #40]	@ 0x28
 83a:	9309      	str	r3, [sp, #36]	@ 0x24
 83c:	9807      	ldr	r0, [sp, #28]
 83e:	9006      	str	r0, [sp, #24]
 840:	9801      	ldr	r0, [sp, #4]
 842:	2800      	cmp	r0, #0
 844:	da00      	bge.n	848 <_dtoa_r+0x6ec>
 846:	e099      	b.n	97c <_dtoa_r+0x820>
 848:	9909      	ldr	r1, [sp, #36]	@ 0x24
 84a:	290e      	cmp	r1, #14
 84c:	dd00      	ble.n	850 <_dtoa_r+0x6f4>
 84e:	e095      	b.n	97c <_dtoa_r+0x820>
 850:	4912      	ldr	r1, [pc, #72]	@ (89c <_dtoa_r+0x740>)
 852:	9a09      	ldr	r2, [sp, #36]	@ 0x24
 854:	00d0      	lsls	r0, r2, #3
 856:	1840      	adds	r0, r0, r1
 858:	6801      	ldr	r1, [r0, #0]
 85a:	6842      	ldr	r2, [r0, #4]
 85c:	911b      	str	r1, [sp, #108]	@ 0x6c
 85e:	921c      	str	r2, [sp, #112]	@ 0x70
 860:	9a29      	ldr	r2, [sp, #164]	@ 0xa4
 862:	2a00      	cmp	r2, #0
 864:	da20      	bge.n	8a8 <_dtoa_r+0x74c>
 866:	9b06      	ldr	r3, [sp, #24]
 868:	2b00      	cmp	r3, #0
 86a:	dc1d      	bgt.n	8a8 <_dtoa_r+0x74c>
 86c:	2000      	movs	r0, #0
 86e:	9019      	str	r0, [sp, #100]	@ 0x64
 870:	2100      	movs	r1, #0
 872:	911a      	str	r1, [sp, #104]	@ 0x68
 874:	2b00      	cmp	r3, #0
 876:	da00      	bge.n	87a <_dtoa_r+0x71e>
 878:	e199      	b.n	bae <_dtoa_r+0xa52>
 87a:	4a09      	ldr	r2, [pc, #36]	@ (8a0 <_dtoa_r+0x744>)
 87c:	4b09      	ldr	r3, [pc, #36]	@ (8a4 <_dtoa_r+0x748>)
 87e:	981b      	ldr	r0, [sp, #108]	@ 0x6c
 880:	991c      	ldr	r1, [sp, #112]	@ 0x70
 882:	f7ff fffe 	bl	0 <__muldf3>
 886:	1c0b      	adds	r3, r1, #0
 888:	1c02      	adds	r2, r0, #0
 88a:	9810      	ldr	r0, [sp, #64]	@ 0x40
 88c:	9911      	ldr	r1, [sp, #68]	@ 0x44
 88e:	f7ff fffe 	bl	0 <__ledf2>
 892:	2800      	cmp	r0, #0
 894:	dc00      	bgt.n	898 <_dtoa_r+0x73c>
 896:	e18a      	b.n	bae <_dtoa_r+0xa52>
 898:	e18d      	b.n	bb6 <_dtoa_r+0xa5a>
	...
 8a2:	4014      	.short	0x4014
 8a4:	00000000 	.word	0x00000000
 8a8:	2201      	movs	r2, #1
 8aa:	4690      	mov	r8, r2
 8ac:	e00e      	b.n	8cc <_dtoa_r+0x770>
 8ae:	4930      	ldr	r1, [pc, #192]	@ (970 <_dtoa_r+0x814>)
 8b0:	482e      	ldr	r0, [pc, #184]	@ (96c <_dtoa_r+0x810>)
 8b2:	f7ff fffe 	bl	0 <__muldf3>
 8b6:	9010      	str	r0, [sp, #64]	@ 0x40
 8b8:	9111      	str	r1, [sp, #68]	@ 0x44
 8ba:	4a2e      	ldr	r2, [pc, #184]	@ (974 <_dtoa_r+0x818>)
 8bc:	4b2e      	ldr	r3, [pc, #184]	@ (978 <_dtoa_r+0x81c>)
 8be:	f7ff fffe 	bl	0 <__eqdf2>
 8c2:	2800      	cmp	r0, #0
 8c4:	d100      	bne.n	8c8 <_dtoa_r+0x76c>
 8c6:	e2ae      	b.n	e26 <_dtoa_r+0xcca>
 8c8:	2301      	movs	r3, #1
 8ca:	4498      	add	r8, r3
 8cc:	9810      	ldr	r0, [sp, #64]	@ 0x40
 8ce:	9911      	ldr	r1, [sp, #68]	@ 0x44
 8d0:	9a1b      	ldr	r2, [sp, #108]	@ 0x6c
 8d2:	9b1c      	ldr	r3, [sp, #112]	@ 0x70
 8d4:	f7ff fffe 	bl	0 <__divdf3>
 8d8:	f7ff fffe 	bl	0 <__fixdfsi>
 8dc:	1c06      	adds	r6, r0, #0
 8de:	f7ff fffe 	bl	0 <__floatsidf>
 8e2:	9a1b      	ldr	r2, [sp, #108]	@ 0x6c
 8e4:	9b1c      	ldr	r3, [sp, #112]	@ 0x70
 8e6:	f7ff fffe 	bl	0 <__muldf3>
 8ea:	1c0b      	adds	r3, r1, #0
 8ec:	1c02      	adds	r2, r0, #0
 8ee:	9810      	ldr	r0, [sp, #64]	@ 0x40
 8f0:	9911      	ldr	r1, [sp, #68]	@ 0x44
 8f2:	f7ff fffe 	bl	0 <__subdf3>
 8f6:	1c0b      	adds	r3, r1, #0
 8f8:	1c02      	adds	r2, r0, #0
 8fa:	1c30      	adds	r0, r6, #0
 8fc:	3030      	adds	r0, #48	@ 0x30
 8fe:	4649      	mov	r1, r9
 900:	7008      	strb	r0, [r1, #0]
 902:	2001      	movs	r0, #1
 904:	4481      	add	r9, r0
 906:	9906      	ldr	r1, [sp, #24]
 908:	4588      	cmp	r8, r1
 90a:	d1d0      	bne.n	8ae <_dtoa_r+0x752>
 90c:	1c19      	adds	r1, r3, #0
 90e:	1c10      	adds	r0, r2, #0
 910:	f7ff fffe 	bl	0 <__adddf3>
 914:	1c0d      	adds	r5, r1, #0
 916:	1c04      	adds	r4, r0, #0
 918:	9a1b      	ldr	r2, [sp, #108]	@ 0x6c
 91a:	9b1c      	ldr	r3, [sp, #112]	@ 0x70
 91c:	f7ff fffe 	bl	0 <__gtdf2>
 920:	2800      	cmp	r0, #0
 922:	dc0d      	bgt.n	940 <_dtoa_r+0x7e4>
 924:	1c29      	adds	r1, r5, #0
 926:	1c20      	adds	r0, r4, #0
 928:	9a1b      	ldr	r2, [sp, #108]	@ 0x6c
 92a:	9b1c      	ldr	r3, [sp, #112]	@ 0x70
 92c:	f7ff fffe 	bl	0 <__eqdf2>
 930:	2800      	cmp	r0, #0
 932:	d000      	beq.n	936 <_dtoa_r+0x7da>
 934:	e277      	b.n	e26 <_dtoa_r+0xcca>
 936:	2001      	movs	r0, #1
 938:	4030      	ands	r0, r6
 93a:	2800      	cmp	r0, #0
 93c:	d100      	bne.n	940 <_dtoa_r+0x7e4>
 93e:	e272      	b.n	e26 <_dtoa_r+0xcca>
 940:	2030      	movs	r0, #48	@ 0x30
 942:	2201      	movs	r2, #1
 944:	4252      	negs	r2, r2
 946:	4491      	add	r9, r2
 948:	464b      	mov	r3, r9
 94a:	781b      	ldrb	r3, [r3, #0]
 94c:	2b39      	cmp	r3, #57	@ 0x39
 94e:	d106      	bne.n	95e <_dtoa_r+0x802>
 950:	991d      	ldr	r1, [sp, #116]	@ 0x74
 952:	4589      	cmp	r9, r1
 954:	d1f5      	bne.n	942 <_dtoa_r+0x7e6>
 956:	9a09      	ldr	r2, [sp, #36]	@ 0x24
 958:	3201      	adds	r2, #1
 95a:	9209      	str	r2, [sp, #36]	@ 0x24
 95c:	7008      	strb	r0, [r1, #0]
 95e:	464b      	mov	r3, r9
 960:	7818      	ldrb	r0, [r3, #0]
 962:	3001      	adds	r0, #1
 964:	7018      	strb	r0, [r3, #0]
 966:	2001      	movs	r0, #1
 968:	4481      	add	r9, r0
 96a:	e25c      	b.n	e26 <_dtoa_r+0xcca>
 96c:	40240000 	.word	0x40240000
	...
 97c:	9d04      	ldr	r5, [sp, #16]
 97e:	9e05      	ldr	r6, [sp, #20]
 980:	2100      	movs	r1, #0
 982:	9118      	str	r1, [sp, #96]	@ 0x60
 984:	2200      	movs	r2, #0
 986:	9219      	str	r2, [sp, #100]	@ 0x64
 988:	9b0c      	ldr	r3, [sp, #48]	@ 0x30
 98a:	2b00      	cmp	r3, #0
 98c:	d031      	beq.n	9f2 <_dtoa_r+0x896>
 98e:	9903      	ldr	r1, [sp, #12]
 990:	2901      	cmp	r1, #1
 992:	dc0d      	bgt.n	9b0 <_dtoa_r+0x854>
 994:	9a16      	ldr	r2, [sp, #88]	@ 0x58
 996:	2a00      	cmp	r2, #0
 998:	d006      	beq.n	9a8 <_dtoa_r+0x84c>
 99a:	4b02      	ldr	r3, [pc, #8]	@ (9a4 <_dtoa_r+0x848>)
 99c:	181b      	adds	r3, r3, r0
 99e:	4698      	mov	r8, r3
 9a0:	e01c      	b.n	9dc <_dtoa_r+0x880>
 9a2:	0000      	.short	0x0000
 9a4:	00000433 	.word	0x00000433
 9a8:	9902      	ldr	r1, [sp, #8]
 9aa:	2036      	movs	r0, #54	@ 0x36
 9ac:	1a40      	subs	r0, r0, r1
 9ae:	e014      	b.n	9da <_dtoa_r+0x87e>
 9b0:	9c06      	ldr	r4, [sp, #24]
 9b2:	3c01      	subs	r4, #1
 9b4:	9805      	ldr	r0, [sp, #20]
 9b6:	42a0      	cmp	r0, r4
 9b8:	db01      	blt.n	9be <_dtoa_r+0x862>
 9ba:	1b06      	subs	r6, r0, r4
 9bc:	e007      	b.n	9ce <_dtoa_r+0x872>
 9be:	9905      	ldr	r1, [sp, #20]
 9c0:	1a64      	subs	r4, r4, r1
 9c2:	9a0e      	ldr	r2, [sp, #56]	@ 0x38
 9c4:	1912      	adds	r2, r2, r4
 9c6:	920e      	str	r2, [sp, #56]	@ 0x38
 9c8:	1909      	adds	r1, r1, r4
 9ca:	9105      	str	r1, [sp, #20]
 9cc:	2600      	movs	r6, #0
 9ce:	9b06      	ldr	r3, [sp, #24]
 9d0:	4698      	mov	r8, r3
 9d2:	2b00      	cmp	r3, #0
 9d4:	da02      	bge.n	9dc <_dtoa_r+0x880>
 9d6:	1aed      	subs	r5, r5, r3
 9d8:	2000      	movs	r0, #0
 9da:	4680      	mov	r8, r0
 9dc:	9904      	ldr	r1, [sp, #16]
 9de:	4441      	add	r1, r8
 9e0:	9104      	str	r1, [sp, #16]
 9e2:	9a0d      	ldr	r2, [sp, #52]	@ 0x34
 9e4:	4442      	add	r2, r8
 9e6:	920d      	str	r2, [sp, #52]	@ 0x34
 9e8:	4650      	mov	r0, sl
 9ea:	2101      	movs	r1, #1
 9ec:	f7ff fffe 	bl	0 <_i2b>
 9f0:	9019      	str	r0, [sp, #100]	@ 0x64
 9f2:	2d00      	cmp	r5, #0
 9f4:	dd0e      	ble.n	a14 <_dtoa_r+0x8b8>
 9f6:	9b0d      	ldr	r3, [sp, #52]	@ 0x34
 9f8:	2b00      	cmp	r3, #0
 9fa:	dd0b      	ble.n	a14 <_dtoa_r+0x8b8>
 9fc:	4698      	mov	r8, r3
 9fe:	45a8      	cmp	r8, r5
 a00:	dd00      	ble.n	a04 <_dtoa_r+0x8a8>
 a02:	46a8      	mov	r8, r5
 a04:	9804      	ldr	r0, [sp, #16]
 a06:	4641      	mov	r1, r8
 a08:	1a40      	subs	r0, r0, r1
 a0a:	9004      	str	r0, [sp, #16]
 a0c:	1a6d      	subs	r5, r5, r1
 a0e:	9a0d      	ldr	r2, [sp, #52]	@ 0x34
 a10:	1a52      	subs	r2, r2, r1
 a12:	920d      	str	r2, [sp, #52]	@ 0x34
 a14:	9b05      	ldr	r3, [sp, #20]
 a16:	2b00      	cmp	r3, #0
 a18:	dd23      	ble.n	a62 <_dtoa_r+0x906>
 a1a:	980c      	ldr	r0, [sp, #48]	@ 0x30
 a1c:	2800      	cmp	r0, #0
 a1e:	d01a      	beq.n	a56 <_dtoa_r+0x8fa>
 a20:	2e00      	cmp	r6, #0
 a22:	dd10      	ble.n	a46 <_dtoa_r+0x8ea>
 a24:	4650      	mov	r0, sl
 a26:	9919      	ldr	r1, [sp, #100]	@ 0x64
 a28:	1c32      	adds	r2, r6, #0
 a2a:	f7ff fffe 	bl	0 <_pow5mult>
 a2e:	9019      	str	r0, [sp, #100]	@ 0x64
 a30:	4650      	mov	r0, sl
 a32:	9919      	ldr	r1, [sp, #100]	@ 0x64
 a34:	9a17      	ldr	r2, [sp, #92]	@ 0x5c
 a36:	f7ff fffe 	bl	0 <_multiply>
 a3a:	1c04      	adds	r4, r0, #0
 a3c:	4650      	mov	r0, sl
 a3e:	9917      	ldr	r1, [sp, #92]	@ 0x5c
 a40:	f7ff fffe 	bl	0 <_Bfree>
 a44:	9417      	str	r4, [sp, #92]	@ 0x5c
 a46:	9905      	ldr	r1, [sp, #20]
 a48:	1b8c      	subs	r4, r1, r6
 a4a:	2c00      	cmp	r4, #0
 a4c:	d009      	beq.n	a62 <_dtoa_r+0x906>
 a4e:	4650      	mov	r0, sl
 a50:	9917      	ldr	r1, [sp, #92]	@ 0x5c
 a52:	1c22      	adds	r2, r4, #0
 a54:	e002      	b.n	a5c <_dtoa_r+0x900>
 a56:	4650      	mov	r0, sl
 a58:	9917      	ldr	r1, [sp, #92]	@ 0x5c
 a5a:	9a05      	ldr	r2, [sp, #20]
 a5c:	f7ff fffe 	bl	0 <_pow5mult>
 a60:	9017      	str	r0, [sp, #92]	@ 0x5c
 a62:	4650      	mov	r0, sl
 a64:	2101      	movs	r1, #1
 a66:	f7ff fffe 	bl	0 <_i2b>
 a6a:	901a      	str	r0, [sp, #104]	@ 0x68
 a6c:	9a0e      	ldr	r2, [sp, #56]	@ 0x38
 a6e:	2a00      	cmp	r2, #0
 a70:	dd04      	ble.n	a7c <_dtoa_r+0x920>
 a72:	4650      	mov	r0, sl
 a74:	991a      	ldr	r1, [sp, #104]	@ 0x68
 a76:	f7ff fffe 	bl	0 <_pow5mult>
 a7a:	901a      	str	r0, [sp, #104]	@ 0x68
 a7c:	9b03      	ldr	r3, [sp, #12]
 a7e:	2b01      	cmp	r3, #1
 a80:	dc1a      	bgt.n	ab8 <_dtoa_r+0x95c>
 a82:	9811      	ldr	r0, [sp, #68]	@ 0x44
 a84:	2800      	cmp	r0, #0
 a86:	d115      	bne.n	ab4 <_dtoa_r+0x958>
 a88:	4808      	ldr	r0, [pc, #32]	@ (aac <_dtoa_r+0x950>)
 a8a:	9910      	ldr	r1, [sp, #64]	@ 0x40
 a8c:	4008      	ands	r0, r1
 a8e:	2800      	cmp	r0, #0
 a90:	d110      	bne.n	ab4 <_dtoa_r+0x958>
 a92:	4807      	ldr	r0, [pc, #28]	@ (ab0 <_dtoa_r+0x954>)
 a94:	4001      	ands	r1, r0
 a96:	2900      	cmp	r1, #0
 a98:	d00c      	beq.n	ab4 <_dtoa_r+0x958>
 a9a:	9904      	ldr	r1, [sp, #16]
 a9c:	3101      	adds	r1, #1
 a9e:	9104      	str	r1, [sp, #16]
 aa0:	9a0d      	ldr	r2, [sp, #52]	@ 0x34
 aa2:	3201      	adds	r2, #1
 aa4:	920d      	str	r2, [sp, #52]	@ 0x34
 aa6:	2301      	movs	r3, #1
 aa8:	930f      	str	r3, [sp, #60]	@ 0x3c
 aaa:	e005      	b.n	ab8 <_dtoa_r+0x95c>
 aac:	000fffff 	.word	0x000fffff
 ab0:	7ff00000 	.word	0x7ff00000
 ab4:	2000      	movs	r0, #0
 ab6:	900f      	str	r0, [sp, #60]	@ 0x3c
 ab8:	990e      	ldr	r1, [sp, #56]	@ 0x38
 aba:	2900      	cmp	r1, #0
 abc:	d012      	beq.n	ae4 <_dtoa_r+0x988>
 abe:	9a1a      	ldr	r2, [sp, #104]	@ 0x68
 ac0:	6911      	ldr	r1, [r2, #16]
 ac2:	3901      	subs	r1, #1
 ac4:	0089      	lsls	r1, r1, #2
 ac6:	1c10      	adds	r0, r2, #0
 ac8:	3014      	adds	r0, #20
 aca:	1840      	adds	r0, r0, r1
 acc:	6800      	ldr	r0, [r0, #0]
 ace:	f7ff fffe 	bl	0 <_hi0bits>
 ad2:	990d      	ldr	r1, [sp, #52]	@ 0x34
 ad4:	3120      	adds	r1, #32
 ad6:	1a09      	subs	r1, r1, r0
 ad8:	4688      	mov	r8, r1
 ada:	201f      	movs	r0, #31
 adc:	4643      	mov	r3, r8
 ade:	4003      	ands	r3, r0
 ae0:	4698      	mov	r8, r3
 ae2:	e006      	b.n	af2 <_dtoa_r+0x996>
 ae4:	980d      	ldr	r0, [sp, #52]	@ 0x34
 ae6:	3001      	adds	r0, #1
 ae8:	4680      	mov	r8, r0
 aea:	201f      	movs	r0, #31
 aec:	4641      	mov	r1, r8
 aee:	4001      	ands	r1, r0
 af0:	4688      	mov	r8, r1
 af2:	4642      	mov	r2, r8
 af4:	2a00      	cmp	r2, #0
 af6:	d002      	beq.n	afe <_dtoa_r+0x9a2>
 af8:	2020      	movs	r0, #32
 afa:	1a82      	subs	r2, r0, r2
 afc:	4690      	mov	r8, r2
 afe:	4643      	mov	r3, r8
 b00:	2b04      	cmp	r3, #4
 b02:	dd02      	ble.n	b0a <_dtoa_r+0x9ae>
 b04:	2004      	movs	r0, #4
 b06:	4240      	negs	r0, r0
 b08:	e003      	b.n	b12 <_dtoa_r+0x9b6>
 b0a:	4643      	mov	r3, r8
 b0c:	2b03      	cmp	r3, #3
 b0e:	dc08      	bgt.n	b22 <_dtoa_r+0x9c6>
 b10:	201c      	movs	r0, #28
 b12:	4480      	add	r8, r0
 b14:	9904      	ldr	r1, [sp, #16]
 b16:	4441      	add	r1, r8
 b18:	9104      	str	r1, [sp, #16]
 b1a:	4445      	add	r5, r8
 b1c:	9a0d      	ldr	r2, [sp, #52]	@ 0x34
 b1e:	4442      	add	r2, r8
 b20:	920d      	str	r2, [sp, #52]	@ 0x34
 b22:	9b04      	ldr	r3, [sp, #16]
 b24:	2b00      	cmp	r3, #0
 b26:	dd05      	ble.n	b34 <_dtoa_r+0x9d8>
 b28:	4650      	mov	r0, sl
 b2a:	9917      	ldr	r1, [sp, #92]	@ 0x5c
 b2c:	1c1a      	adds	r2, r3, #0
 b2e:	f7ff fffe 	bl	0 <_lshift>
 b32:	9017      	str	r0, [sp, #92]	@ 0x5c
 b34:	980d      	ldr	r0, [sp, #52]	@ 0x34
 b36:	2800      	cmp	r0, #0
 b38:	dd05      	ble.n	b46 <_dtoa_r+0x9ea>
 b3a:	4650      	mov	r0, sl
 b3c:	991a      	ldr	r1, [sp, #104]	@ 0x68
 b3e:	9a0d      	ldr	r2, [sp, #52]	@ 0x34
 b40:	f7ff fffe 	bl	0 <_lshift>
 b44:	901a      	str	r0, [sp, #104]	@ 0x68
 b46:	990b      	ldr	r1, [sp, #44]	@ 0x2c
 b48:	2900      	cmp	r1, #0
 b4a:	d01b      	beq.n	b84 <_dtoa_r+0xa28>
 b4c:	9817      	ldr	r0, [sp, #92]	@ 0x5c
 b4e:	991a      	ldr	r1, [sp, #104]	@ 0x68
 b50:	f7ff fffe 	bl	0 <__mcmp>
 b54:	2800      	cmp	r0, #0
 b56:	da15      	bge.n	b84 <_dtoa_r+0xa28>
 b58:	9a09      	ldr	r2, [sp, #36]	@ 0x24
 b5a:	3a01      	subs	r2, #1
 b5c:	9209      	str	r2, [sp, #36]	@ 0x24
 b5e:	4650      	mov	r0, sl
 b60:	9917      	ldr	r1, [sp, #92]	@ 0x5c
 b62:	220a      	movs	r2, #10
 b64:	2300      	movs	r3, #0
 b66:	f7ff fffe 	bl	0 <_multadd>
